CCS PCD C Compiler, Version 5.076, 56587               14-abr.-26 22:58

               Filename:   C:\Users\Alex Gabilondo\Desktop\carrera\FSB 2024-25\Placa de sensores 2025\Programa 24-06-2025 calculo temp+media\Programa\main.lst

               ROM used:   6288 bytes (2%)
                           Largest free fragment is 65536
               RAM used:   1205 (2%) at main() level
                           1270 (2%) worst case
               Stack used: 62 locations (14 in main + 48 for interrupts)
               Stack size: 128

*
00000:  GOTO    16B2
*
0001A:  DATA    34,02,00
*
00084:  DATA    00,03,00
.................... ////prueba temp+mediamovil version 26/6/25 
.................... #include <main.h> 
.................... //AMS_MASTER______main_header 
....................  
.................... //CAN2_BAUDRATE------>500KBPS 
.................... #define CAN_USE_EXTENDED_ID   FALSE 
.................... #DEFINE CAN_BRG_PRESCALAR 1 
.................... #DEFINE CAN_BRG_SYNCH_JUMP_WIDTH 0 
.................... #DEFINE CAN_BRG_PROPAGATION_TIME 0 
.................... #DEFINE CAN_BRG_PHASE_SEGMENT_1 4 
.................... #DEFINE CAN_BRG_SAM 0 
.................... #DEFINE CAN_BRG_SEG_2_PHASE_TS 1 
.................... #DEFINE CAN_BRG_PHASE_SEGMENT_2 2 
.................... #DEFINE CAN_BRG_WAKE_FILTER 0 
.................... #DEFINE CAN_CANCKS 0 
.................... //CAN2_BAUDRATE------>500KBPS 
.................... #define CAN2_USE_EXTENDED_ID   FALSE 
.................... #DEFINE CAN2_BRG_PRESCALAR 1 // UN 0 PARA UN MEGAHERCIO..............UN 2 PARA 250 KHZ 
.................... #DEFINE CAN2_BRG_SYNCH_JUMP_WIDTH 0  
.................... #DEFINE CAN2_BRG_PROPAGATION_TIME 0 
.................... #DEFINE CAN2_BRG_PHASE_SEGMENT_1 4 
.................... #DEFINE CAN2_BRG_SAM 0 
.................... #DEFINE CAN2_BRG_SEG_2_PHASE_TS 1 
.................... #DEFINE CAN2_BRG_PHASE_SEGMENT_2 2 
.................... #DEFINE CAN2_BRG_WAKE_FILTER 0 
.................... #DEFINE CAN2_CANCKS 0 
....................  
.................... #include <24EP512GU810.h> 
.................... //////////// Standard Header file for the PIC24EP512GU810 device //////////////// 
.................... /////////////////////////////////////////////////////////////////////////// 
.................... ////        (C) Copyright 1996, 2014 Custom Computer Services          //// 
.................... //// This source code may only be used by licensed users of the CCS C  //// 
.................... //// compiler.  This source code may only be distributed to other      //// 
.................... //// licensed users of the CCS C compiler.  No other use, reproduction //// 
.................... //// or distribution is permitted without written permission.          //// 
.................... //// Derivative programs created using this software in object code    //// 
.................... //// form are not restricted in any way.                               //// 
.................... /////////////////////////////////////////////////////////////////////////// 
.................... #device PIC24EP512GU810 
....................  
.................... #list 
....................  
.................... #device ICSP=1 
.................... #device ADC=8 
.................... #use delay(crystal=20000000) 
....................  
.................... #FUSES PR 
.................... #FUSES HS                        //High frec. oscilator selection, as we have a 20MHz osc. HS is the fuse needed 
.................... #FUSES NOWDT                    //No Watch Dog Timer 
.................... #FUSES CKSFSM                   //Clock Switching is enabled, fail Safe clock monitor is enabled 
.................... #FUSES NOBROWNOUT               //No brownout reset 
.................... #FUSES NOJTAG                   //JTAG disabled 
....................  
.................... #use FIXED_IO( E_outputs=PIN_E8,PIN_E7 ) 
....................  
.................... #define LED_1   PIN_E7 
.................... #define LED_0   PIN_E8 
....................  
....................  
....................  
....................  
....................  
....................  
.................... //SELECCION DE PINES DE CAN PARA CADA LINEA 
.................... ///////////////Linea PRIVADA sensor ///////////////////////////////////// 
.................... #pin_select C2TX = PIN_G0 //seleccionamos los piens de una linea de can _ CAN_B 
.................... #pin_select C2RX = PIN_A6 //coche principal 
....................  
.................... /////////////////Linea Principal //////////////////////// 
.................... #pin_select C1TX = PIN_D4   
.................... #pin_select C1RX = PIN_D13    
.................... #include <can-PIC24.c>   
.................... //////////////////////////////////////////////////////////////////////////////// 
.................... ////                        can-PIC24.c                                     //// 
.................... //// CAN Library routines for Microchip's PIC24 and dsPIC33 line            //// 
.................... ////                                                                        //// 
.................... //// This library provides the following functions:                         //// 
.................... ////  (for more information on these functions see the comment              //// 
.................... ////   header above each function)                                          //// 
.................... ////                                                                        //// 
.................... ////  can_init - Configures the PIC24 CAN1 peripheral                       //// 
.................... ////  can2_init - Configures the PIC24 CAN2 peripheral                      //// 
.................... ////                                                                        //// 
.................... ////  can_set_baud - Sets the baud rate control registers for CAN1          //// 
.................... ////  can2_set_baud - Sets the baud rate control registers for CAN2         //// 
.................... ////                                                                        //// 
.................... ////  can_set_mode - Sets the CAN1 module into a specific mode              //// 
.................... ////  can2_set_mode - Sets the CAN2 module into a specific mode             ////  
.................... ////                                                                        //// 
.................... ////  can_set_id - Sets the standard and extended ID of filters and         //// 
.................... ////     masks for CAN1                                                     //// 
.................... ////  can2_set_id - Sets the standard and extended ID of filters and        //// 
.................... ////     masks for CAN2                                                     //// 
.................... ////                                                                        //// 
.................... ////  can_set_buffer_id Sets the standard and extended ID of specified      //// 
.................... ////     buffer for CAN1                                                    //// 
.................... ////  can2_set_buffer_id Sets the standard and extended ID of specified     //// 
.................... ////     buffer for CAN2                                                    //// 
.................... ////                                                                        //// 
.................... ////  can_set_buffer_size() Sets the DMA buffer size that CAN1 uses         //// 
.................... ////  can2_set_buffer_size() Sets the DMA buffer size that CAN2 uses        //// 
.................... ////                                                                        //// 
.................... ////  can_get_id - Gets the standard and extended ID for CAN1               //// 
.................... ////  can2_get_id - Gets the standard and extended ID for CAN2              //// 
.................... ////                                                                        //// 
.................... ////  can_putd - Sends a message/request with specified ID for CAN1         //// 
.................... ////  can2_putd - Sends a message/request with specified ID for CAN2        //// 
.................... ////                                                                        //// 
.................... ////  can_getd - Returns specified message/request and ID for CAN1          //// 
.................... ////  can2_getd - Returns specified message/request and ID for CAN2         //// 
.................... ////                                                                        //// 
.................... ////  can_kbhit - Returns true if there is data in one of the receive       //// 
.................... ////     buffers for CAN1                                                   //// 
.................... ////  can2_kbhit - Returns true if there is data in one of the receive      //// 
.................... ////     buffers for CAN2                                                   //// 
.................... ////                                                                        //// 
.................... ////  can_tbe - Returns true if the transmit buffer is ready to send        //// 
.................... ////     more data for CAN1                                                 //// 
.................... ////  can2_tbe - Returns true if the transmit buffer is ready to send       //// 
.................... ////     more data for CAN2                                                 //// 
.................... ////                                                                        //// 
.................... ////  can_abort - Aborts all pending transmissions for CAN1                 //// 
.................... ////  can2_abort - Aborts all pending transmissions for CAN2                //// 
.................... ////                                                                        //// 
.................... ////  can_enable_b_transfer - enables buffer as transmitter for CAN1        //// 
.................... ////  can2_enable_b_transfer - enables buffer as transmitter for CAN2       //// 
.................... ////                                                                        //// 
.................... ////  can_enable_b_receiver - enables buffer as receiver for CAN1           //// 
.................... ////  can2_enable_b_receiver - enables buffer as receiver for CAN2          //// 
.................... ////                                                                        //// 
.................... ////  can_enable_rtr - enables transmit buffer as Auto-rtr for CAN1         //// 
.................... ////  can2_enable_rtr - enables transmit buffer as Auto-rtr for CAN2        //// 
.................... ////                                                                        //// 
.................... ////  can_disable_rtr - disables transmit buffer as Auto-rtr for CAN1       //// 
.................... ////  can2_disable_rtr - disables transmit buffer as Auto-rtr for CAN2      //// 
.................... ////                                                                        //// 
.................... ////  can_load_rtr - loads an Auto-rtr buffer with data for CAN1            //// 
.................... ////  can2_load_rtr - loads an Auto-rtr buffer with data for CAN2           //// 
.................... ////                                                                        //// 
.................... ////  can_enable_filter - enables one of 15 filters for CAN1                //// 
.................... ////  can2_enable_filter - enables one of 15 filters for CAN2               //// 
.................... ////                                                                        //// 
.................... ////  can_disable_filter - disables one of the 15 filters for CAN1          //// 
.................... ////  can2_disable_filter - disables one of the 15 filters for CAN2         //// 
.................... ////                                                                        //// 
.................... ////  can_associate_filter_to_buffer - associates a filter with a           //// 
.................... ////     buffer for CAN1                                                    //// 
.................... ////  can2_associate_filter_to_buffer - associates a filter with a          //// 
.................... ////     buffer for CAN2                                                    //// 
.................... ////                                                                        //// 
.................... ////  can_associate_filter_to_mask - associates a filter with a mask        //// 
.................... ////     for CAN1                                                           //// 
.................... ////  can2_associate_filter_to_mask - associates a filter with a mask       //// 
.................... ////     for CAN2                                                           //// 
.................... ////                                                                        //// 
.................... ////  can_fifo_getd - retrieve data in FIFO mode for CAN1                   //// 
.................... ////  can2_fifo_getd - retrieve data in FIFO mode for CAN2                  //// 
.................... ////                                                                        //// 
.................... ////  can_trb0_putd                                                         //// 
.................... ////  can_trb1_putd                                                         //// 
.................... ////  can_trb2_putd                                                         //// 
.................... ////  can_trb3_putd                                                         //// 
.................... ////  can_trb4_putd                                                         //// 
.................... ////  can_trb5_putd                                                         //// 
.................... ////  can_trb6_putd                                                         //// 
.................... ////  can_trb7_putd - place data in a specific buffer for CAN1              //// 
.................... ////  can2_trb0_putd                                                        //// 
.................... ////  can2_trb1_putd                                                        //// 
.................... ////  can2_trb2_putd                                                        //// 
.................... ////  can2_trb3_putd                                                        //// 
.................... ////  can2_trb4_putd                                                        //// 
.................... ////  can2_trb5_putd                                                        //// 
.................... ////  can2_trb6_putd                                                        //// 
.................... ////  can2_trb7_putd - place data in a specific buffer for CAN2             //// 
.................... ////                                                                        //// 
.................... ////  can_enable_interrupts - enables specified interrupts for #INT_CAN1    //// 
.................... ////  can2_enable_interrupts - enables specified interrupts for #INT_CAN2   //// 
.................... ////                                                                        //// 
.................... ////  can_disable_interrupts - disables specified interrupts for #INT_CAN1  //// 
.................... ////  can2_disable_interrupts - disables specified interrupts for #INT_CAN2 //// 
.................... ////                                                                        //// 
.................... ////  can_config_DMA - configures DMA buffers for CAN1                      //// 
.................... ////  can2_config_DMA - configures DMA buffers for CAN2                     //// 
.................... ////                                                                        //// 
.................... //// PIN_F0 is C1RX, PIN_F1 is C1TX, PIN_G0 is C2RX and PIN_G1 is C2TX. You //// 
.................... //// will need a CAN transceiver to connect these pins to CANH and CANL bus //// 
.................... //// lines.                                                                 //// 
.................... ////                                                                        //// 
.................... //////////////////////////////////////////////////////////////////////////////// 
.................... ////                                                                        //// 
.................... //// Version History                                                        //// 
.................... ////                                                                        //// 
.................... ////     Mar 21 17 - Added DONT_USE_ERRATA_WORKAROUND option to build code  //// 
.................... ////                 without work around implemented for dsPIC33EV family.  //// 
.................... ////                                                                        //// 
.................... ////     May 02 16 - Added work around for dsPIC33EV family.                //// 
.................... ////                                                                        //// 
.................... //////////////////////////////////////////////////////////////////////////////// 
.................... ////        (C) Copyright 1996,2017 Custom Computer Services                //// 
.................... //// This source code may only be used by licensed users of the CCS         //// 
.................... //// C compiler.  This source code may only be distributed to other         //// 
.................... //// licensed users of the CCS C compiler.  No other use,                   //// 
.................... //// reproduction or distribution is permitted without written              //// 
.................... //// permission.  Derivative programs created using this software           //// 
.................... //// in object code form are not restricted in any way.                     //// 
.................... //////////////////////////////////////////////////////////////////////////////// 
....................  
.................... #include <stdint.h> 
.................... /////////////////////////////////////////////////////////////////////////// 
.................... ////                                                                   //// 
.................... ////                           stdint.h                                //// 
.................... ////                                                                   //// 
.................... //// Standard integer definitions.                                     //// 
.................... ////                                                                   //// 
.................... /////////////////////////////////////////////////////////////////////////// 
.................... ////        (C) Copyright 1996,2008 Custom Computer Services           //// 
.................... //// This source code may only be used by licensed users of the CCS C  //// 
.................... //// compiler.  This source code may only be distributed to other      //// 
.................... //// licensed users of the CCS C compiler.  No other use, reproduction //// 
.................... //// or distribution is permitted without written permission.          //// 
.................... //// Derivative programs created using this software in object code    //// 
.................... //// form are not restricted in any way.                               //// 
.................... /////////////////////////////////////////////////////////////////////////// 
....................  
.................... #ifndef _STDINT 
....................  
.................... #define _STDINT 
....................  
.................... //////////// exact width 
....................  
.................... typedef signed int8 int8_t; 
.................... typedef unsigned int8 uint8_t; 
.................... typedef signed int16 int16_t; 
.................... typedef unsigned int16 uint16_t; 
.................... typedef signed int32 int32_t; 
.................... typedef unsigned int32 uint32_t; 
....................  
.................... #if defined(__PCD__) 
.................... //typedef signed int24 int24_t; 
.................... //typedef unsigned int24 uint24_t; 
.................... typedef signed int64 int64_t; 
.................... typedef unsigned int64 uint64_t; 
.................... #endif 
....................  
.................... #define INT8_MAX  (127) 
.................... #define INT8_MIN  (-128) 
.................... #define UINT8_MAX (255) 
....................  
.................... #define INT16_MAX  (32767) 
.................... #define INT16_MIN  (-32768) 
.................... #define UINT16_MAX (65535) 
....................  
.................... #define INT32_MAX  (2147483647) 
.................... #define INT32_MIN  (-2147483648) 
.................... #define UINT32_MAX (4294967295) 
....................  
.................... #if defined(__PCD__) 
.................... //#define INT24_MAX  (8388607) 
.................... //#define INT24_MIN  (-8388608) 
.................... //#define UINT24_MAX (16777215) 
....................  
.................... #define INT64_MAX  (9223372036854775807) 
.................... #define INT64_MIN  (-9223372036854775808) 
.................... #define UINT64_MAX (18446744073709551615) 
.................... #endif 
....................  
.................... ///////// minimum width 
....................  
.................... typedef signed int8 int_least8_t; 
.................... typedef unsigned int8 uint_least8_t; 
.................... typedef signed int16 int_least16_t; 
.................... typedef unsigned int16 uint_least16_t; 
.................... typedef signed int32 int_least32_t; 
.................... typedef unsigned int32 uint_least32_t; 
....................  
.................... #if defined(__PCD__) 
.................... //typedef signed int24 int_least24_t; 
.................... //typedef unsigned int24 uint_least24_t; 
.................... typedef signed int64 int_least64_t; 
.................... typedef unsigned int64 uint_least64_t; 
.................... #endif 
....................  
.................... #define INT_LEAST8_MAX  (127) 
.................... #define INT_LEAST8_MIN  (-128) 
.................... #define UINT_LEAST8_MAX (255) 
....................  
.................... #define INT_LEAST16_MAX  (32767) 
.................... #define INT_LEAST16_MIN  (-32768) 
.................... #define UINT_LEAST16_MAX (65535) 
....................  
.................... #define INT_LEAST32_MAX  (2147483647) 
.................... #define INT_LEAST32_MIN  (-2147483648) 
.................... #define UINT_LEAST32_MAX (4294967295) 
....................  
.................... #if defined(__PCD__) 
.................... //#define INT_LEAST24_MAX  (8388607) 
.................... //#define INT_LEAST24_MIN  (-8388608) 
.................... //#define UINT_LEAST24_MAX (16777215) 
....................  
.................... #define INT_LEAST64_MAX  (9223372036854775807) 
.................... #define INT_LEAST64_MIN  (-9223372036854775808) 
.................... #define UINT_LEAST64_MAX (18446744073709551615) 
.................... #endif 
....................  
.................... ///////// fastest width 
....................  
.................... #if defined(__PCD__) 
.................... typedef signed int16 int_fast8_t; 
.................... typedef unsigned int16 uint_fast8_t; 
.................... #define INT_FAST8_MAX  (32767) 
.................... #define INT_FAST8_MIN  (-32768) 
.................... #define UINT_FAST8_MAX (65535) 
.................... typedef signed int16 int_fast16_t; 
.................... typedef unsigned int16 uint_fast16_t; 
.................... //typedef signed int24 int_fast24_t; 
.................... //typedef unsigned int24 uint_fast24_t; 
.................... typedef signed int64 int_fast64_t; 
.................... typedef unsigned int64 uint_fast64_t; 
.................... #else 
.................... typedef signed int8 int_fast8_t; 
.................... typedef unsigned int8 uint_fast8_t; 
.................... #define INT_FAST8_MAX  (127) 
.................... #define INT_FAST8_MIN  (-128) 
.................... #define UINT_FAST8_MAX (255) 
.................... typedef signed int16 int_fast16_t; 
.................... typedef unsigned int16 uint_fast16_t; 
.................... #endif 
....................  
.................... typedef signed int32 int_fast32_t; 
.................... typedef unsigned int32 uint_fast32_t; 
....................  
.................... #define INT_FAST16_MAX  (32767) 
.................... #define INT_FAST16_MIN  (-32768) 
.................... #define UINT_FAST16_MAX (65535) 
....................  
.................... #define INT_FAST32_MAX  (2147483647) 
.................... #define INT_FAST32_MIN  (-2147483648) 
.................... #define UINT_FAST32_MAX (4294967295) 
....................  
.................... #if defined(__PCD__) 
.................... //#define INT_FAST24_MAX  (8388607) 
.................... //#define INT_FAST24_MIN  (-8388608) 
.................... //#define UINT_FAST24_MAX (16777215) 
....................  
.................... #define INT_FAST64_MAX  (9223372036854775807) 
.................... #define INT_FAST64_MIN  (-9223372036854775808) 
.................... #define UINT_FAST64_MAX (18446744073709551615) 
.................... #endif 
....................  
.................... //////////// big enough to hold pointers (OPTIONAL) 
....................  
.................... #if defined(__PCD__) 
....................    typedef unsigned int32 uintptr_t; 
....................    typedef signed int32 intptr_t; 
.................... #else 
....................    typedef unsigned int16 uintptr_t; 
....................    typedef signed int16 intptr_t; 
.................... #endif 
....................  
.................... /// TODO: 
.................... /// INTPTRN_MIN INTPTRN_MAX UINTPTRN_MAX 
....................  
....................  
.................... /////////// greatest width (OPTIONAL) 
....................  
.................... /// TODO 
....................  
.................... /// intmax_t uintmax_t 
....................  
.................... /// INTMAXN_MIN INTMAXN_MAX UINTMAXN_MAX 
....................  
.................... /// INTMAX_C(value) UINTMAX_C(value) 
....................  
....................  
.................... #endif 
....................  
.................... #include <can-PIC24.h> 
.................... ///////////////////////////////////////////////////////////////////////// 
.................... ////                        can-PIC24.h                              //// 
.................... ////                                                                 //// 
.................... //// Prototypes, definitions, defines and macros used for and with   //// 
.................... //// the CCS CAN library for PIC24HJ and dsPIC33FJ.                  //// 
.................... ////                                                                 //// 
.................... //// (see can-PIC24.c)                                               //// 
.................... ////                                                                 //// 
.................... ///////////////////////////////////////////////////////////////////////// 
.................... ////        (C) Copyright 1996,2017 Custom Computer Services         //// 
.................... //// This source code may only be used by licensed users of the CCS  //// 
.................... //// C compiler.  This source code may only be distributed to other  //// 
.................... //// licensed users of the CCS C compiler.  No other use,            //// 
.................... //// reproduction or distribution is permitted without written       //// 
.................... //// permission.  Derivative programs created using this software    //// 
.................... //// in object code form are not restricted in any way.              //// 
.................... ///////////////////////////////////////////////////////////////////////// 
....................  
.................... #ifndef __CCS_CAN24HJ_LIB_DEFINES__ 
.................... #define __CCS_CAN24HJ_LIB_DEFINES__ 
....................  
.................... #ifndef CAN_DO_DEBUG 
....................  #define CAN_DO_DEBUG FALSE 
.................... #endif 
....................  
.................... #ifndef CAN_BUFFER_SIZE 
....................    #define CAN_BUFFER_SIZE 32 
.................... #endif 
....................  
.................... #ifndef CAN2_BUFFER_SIZE 
....................    #define CAN2_BUFFER_SIZE 32 
.................... #endif 
....................  
.................... #IFNDEF CAN_USE_EXTENDED_ID 
....................   #define CAN_USE_EXTENDED_ID         TRUE 
.................... #ENDIF 
....................  
.................... #IFNDEF CAN_BRG_SYNCH_JUMP_WIDTH 
....................   #define CAN_BRG_SYNCH_JUMP_WIDTH  0  //synchronized jump width (def: 1 x Tq) 
.................... #ENDIF 
....................  
.................... #IFNDEF CAN2_BRG_SYNCH_JUMP_WIDTH 
....................   #define CAN2_BRG_SYNCH_JUMP_WIDTH  0  //synchronized jump width (def: 1 x Tq) 
.................... #ENDIF 
....................  
.................... #IFNDEF CAN_BRG_PRESCALAR 
....................   #define CAN_BRG_PRESCALAR  4  //baud rate generator prescalar (def: 4) ( Tq = (2 x (PRE + 1))/(Fosc/2) ) 
.................... #ENDIF 
....................  
.................... #IFNDEF CAN2_BRG_PRESCALAR 
....................   #define CAN2_BRG_PRESCALAR  4  //baud rate generator prescalar (def: 4) ( Tq = (2 x (PRE + 1))/(Fosc/2) ) 
.................... #ENDIF 
....................  
.................... #ifndef CAN_BRG_SEG_2_PHASE_TS 
....................  #define CAN_BRG_SEG_2_PHASE_TS   TRUE //phase segment 2 time select bit (def: freely programmable) 
.................... #endif 
....................  
.................... #ifndef CAN2_BRG_SEG_2_PHASE_TS 
....................  #define CAN2_BRG_SEG_2_PHASE_TS   TRUE //phase segment 2 time select bit (def: freely programmable) 
.................... #endif 
....................  
.................... #ifndef CAN_BRG_SAM 
....................  #define CAN_BRG_SAM 0 //sample of the can bus line (def: bus line is sampled 1 times prior to sample point) 
.................... #endif 
....................  
.................... #ifndef CAN2_BRG_SAM 
....................  #define CAN2_BRG_SAM 0 //sample of the can bus line (def: bus line is sampled 1 times prior to sample point) 
.................... #endif 
....................  
.................... #ifndef CAN_BRG_PHASE_SEGMENT_1 
....................  #define CAN_BRG_PHASE_SEGMENT_1  5 //phase segment 1 (def: 6 x Tq) 
.................... #endif 
....................  
.................... #ifndef CAN2_BRG_PHASE_SEGMENT_1 
....................  #define CAN2_BRG_PHASE_SEGMENT_1  5 //phase segment 1 (def: 6 x Tq) 
.................... #endif 
....................  
.................... #ifndef CAN_BRG_PROPAGATION_TIME 
....................  #define CAN_BRG_PROPAGATION_TIME 2 //propagation time select (def: 3 x Tq) 
.................... #endif 
....................  
.................... #ifndef CAN2_BRG_PROPAGATION_TIME 
....................  #define CAN2_BRG_PROPAGATION_TIME 2 //propagation time select (def: 3 x Tq) 
.................... #endif 
....................  
.................... #ifndef CAN_BRG_WAKE_FILTER 
....................  #define CAN_BRG_WAKE_FILTER FALSE   //selects can bus line filter for wake up bit 
.................... #endif 
....................  
.................... #ifndef CAN2_BRG_WAKE_FILTER 
....................  #define CAN2_BRG_WAKE_FILTER FALSE   //selects can bus line filter for wake up bit 
.................... #endif 
....................  
.................... #ifndef CAN_BRG_PHASE_SEGMENT_2 
....................  #define CAN_BRG_PHASE_SEGMENT_2 5 //phase segment 2 time select (def: 6 x Tq) 
.................... #endif 
....................  
.................... #ifndef CAN2_BRG_PHASE_SEGMENT_2 
....................  #define CAN2_BRG_PHASE_SEGMENT_2 5 //phase segment 2 time select (def: 6 x Tq) 
.................... #endif 
....................  
.................... #ifndef CAN_CANCKS 
....................  #if (getenv("DEVICE") == "PIC24EP256GU810") || (getenv("DEVICE") == "PIC24EP256GU814") || \ 
....................      (getenv("DEVICE") == "PIC24EP512GP806") || (getenv("DEVICE") == "PIC24EP512GU810") || (getenv("DEVICE") == "PIC24EP512GU814") || \ 
....................      (getenv("DEVICE") == "DSPIC33EP256MU806") || (getenv("DEVICE") == "DSPIC33EP256MU810") || (getenv("DEVICE") == "DSPIC33EP256MU814") || \ 
....................      (getenv("DEVICE") == "DSPIC33EP512GP806") || (getenv("DEVICE") == "DSPIC33EP512MC806") || (getenv("DEVICE") == "DSPIC33EP512MU810") || (getenv("DEVICE") == "DSPIC33EP512MU814") 
....................   #define CAN_CANCKS 1        //For these PIC24EP and dsPIC33EP chips this bit is backwards 
....................                               //(1 sets FCCAN = FOSC/2 and 0 sets FCCAN = FOSC). 
....................  #else 
....................   #define CAN_CANCKS 0        //For PIC24EP and dsPIC33EP chips, 0 - FCCAN = FOSC/2 and 1 - FCCAN = FOSC 
....................  #endif                       //Bit not used for PIC24HJ and dsPIC33FJ chip, FCCAN = FOSC/2 
.................... #endif 
....................        
.................... #ifndef CAN2_CANCKS 
....................  #if (getenv("DEVICE") == "PIC24EP256GU810") || (getenv("DEVICE") == "PIC24EP256GU814") || \ 
....................      (getenv("DEVICE") == "PIC24EP512GP806") || (getenv("DEVICE") == "PIC24EP512GU810") || (getenv("DEVICE") == "PIC24EP512GU814") || \ 
....................      (getenv("DEVICE") == "DSPIC33EP256MU806") || (getenv("DEVICE") == "DSPIC33EP256MU810") || (getenv("DEVICE") == "DSPIC33EP256MU814") || \ 
....................      (getenv("DEVICE") == "DSPIC33EP512GP806") || (getenv("DEVICE") == "DSPIC33EP512MC806") || (getenv("DEVICE") == "DSPIC33EP512MU810") || (getenv("DEVICE") == "DSPIC33EP512MU814") 
....................   #define CAN2_CANCKS 1       //For these PIC24EP and dsPIC33EP chips this bit is backwards 
....................                               //(1 sets FCCAN = FOSC/2 and 0 sets FCCAN = FOSC). 
....................  #else 
....................   #define CAN2_CANCKS 0       //For PIC24EP and dsPIC33EP chips, 0 - FCCAN = FOSC/2 and 1 - FCCAN = FOSC 
....................  #endif                       //Bit not used for PIC24HJ and dsPIC33FJ chip, FCCAN = FOSC/2 
.................... #endif 
....................  
.................... #ifndef CAN_ENABLE_CAN_CAPTURE 
....................  #define CAN_ENABLE_CAN_CAPTURE 0 
.................... #endif 
....................  
....................  
.................... //////////////////////////////////////////////////////////////////////////////// 
.................... //////////////////////// ECAN Control Registers //////////////////////////////// 
.................... //////////////////////////////////////////////////////////////////////////////// 
....................  
.................... enum CAN_OP_MODE {   CAN_OP_LISTEN_ALL=7, 
....................                      CAN_OP_CONFIG=4, 
....................                      CAN_OP_LISTEN=3, 
....................                      CAN_OP_LOOPBACK=2, 
....................                      CAN_OP_DISABLE=1, 
....................                      CAN_OP_NORMAL=0 }; 
....................                       
.................... // ECAN Control Register 1                      
.................... struct CiCTRL1_struct { 
....................    int1 win;               //0      //SFR map window select bit 
....................    int void21:2;           //1:2     
....................    int1 cancap;            //3      //CAN message receive timer capture event enable bit 
....................    int1 void4;             //4 
....................    CAN_OP_MODE opmode:3;   //5:7    //Operation mode bits 
....................    CAN_OP_MODE reqop:3;    //8:10   //Request operation mode bits 
....................    int1 cancks;            //11     //CAN master clock select bit 
....................    int1 abat;              //12     //Abort all pending transmissions bit 
....................    int1 csidl;             //13     //Stop in idle mode bit 
....................    int void15_14:2;        //14:15 
.................... }; 
....................  
.................... struct CiCTRL1_struct C1CTRL1; 
.................... #word C1CTRL1=getenv("SFR:C1CTRL1") 
....................  
.................... #if getenv("SFR_VALID:C2CTRL1") 
....................    struct CiCTRL1_struct C2CTRL1; 
....................    #word C2CTRL1=getenv("SFR:C2CTRL1") 
.................... #endif 
....................  
.................... // ECAN Control Register 2 
.................... struct CiCTRL2_struct { 
....................    int dncnt:5;            //0:4    //DeviceNet filter bit number bits 
....................    int void15_5:11;        //5:15 
.................... }; 
....................  
.................... struct CiCTRL2_struct C1CTRL2; 
.................... #word C1CTRL2=getenv("SFR:C1CTRL2") 
....................  
.................... #if getenv("SFR_VALID:C2CTRL2") 
....................    struct CiCTRL2_struct C2CTRL2; 
....................    #word C2CTRL2=getenv("SFR:C2CTRL2") 
.................... #endif 
....................  
.................... //////////////////////////////////////////////////////////////////////////////// 
.................... /////////////////////// Baud Control Registers ///////////////////////////////// 
.................... //////////////////////////////////////////////////////////////////////////////// 
....................  
.................... // ECAN Baud Configuration Register 1 
.................... struct CiCFG1_struct { 
....................    int brp:6;              //0:5    //Baud Rate Prescalar bits 
....................    int sjw:2;              //6:7    //Synchronization jump width bits 
....................    int void15_8:8;         //8:15 
.................... }; 
....................  
.................... struct CiCFG1_struct C1CFG1; 
.................... #word C1CFG1=getenv("SFR:C1CFG1") 
....................  
.................... #if getenv("SFR_VALID:C2CFG1") 
....................    struct CiCFG1_struct C2CFG1; 
....................    #word C2CFG1=getenv("SFR:C2CFG1") 
.................... #endif 
....................  
.................... //ECAN Baud Configuration Register 2 
.................... struct CiCFG2_struct { 
....................    int prseg:3;            //0:2    //Propagation time segment bits 
....................    int seg1ph:3;           //3:5    //Phase segment 1 bits 
....................    int1 sam;               //6      //Sample of the CAN bus line bit 
....................    int1 seg2phts;          //7      //Phase segment 2 time select bit 
....................    int seg2ph:3;           //8:10   //Phase segment 2 bits 
....................    int void13_11:3;        //11:13 
....................    int1 wakfil;            //14       //Select CAN bus line filter for wake-up bit 
....................    int1 void15;            //15 
.................... }; 
....................  
.................... struct CiCFG2_struct C1CFG2; 
.................... #word C1CFG2=getenv("SFR:C1CFG2") 
....................  
.................... #if getenv("SFR_VALID:C2CFG2") 
....................    struct CiCFG2_struct C2CFG2; 
....................    #word C2CFG2=getenv("SFR:C2CFG2") 
.................... #endif 
....................  
.................... //////////////////////////////////////////////////////////////////////////////// 
....................  
.................... //ECAN Transmit/Receive Error Count Register 
.................... struct CiEC_struct { 
....................    uint8_t rerrcnt;        //0:7    //Receive error count bits 
....................    uint8_t terrcnt;        //8:15   //Transmit error count bits 
.................... }; 
....................  
.................... struct CiEC_struct C1EC; 
.................... #word C1EC=getenv("SFR:C1EC") 
....................  
.................... #if getenv("SFR_VALID:C2EC") 
....................    struct CiEC_struct C2EC; 
....................    #word C2EC=getenv("SFR:C2EC") 
.................... #endif 
....................  
.................... //////////////////////////////////////////////////////////////////////////////// 
....................  
.................... enum CAN_FILTER_CONTROL { FLTEN0=0x0001, FLTEN1=0x0002, FLTEN2=0x0004, FLTEN3=0x0008, 
....................                           FLTEN4=0x0010, FLTEN5=0x0020, FLTEN6=0x0040, FLTEN7=0x0080, 
....................                           FLTEN8=0x0100, FLTEN9=0x0200, FLTEN10=0x0400, FLTEN11=0x0800, 
....................                           FLTEN12=0x1000, FLTEN13=0x2000, FLTEN14=0x4000, FLTEN15=0x8000}; 
....................  
.................... //ECAN Acceptance Filter Enable register 
.................... #word C1FEN1=getenv("SFR:C1FEN1") 
....................  
.................... #if getenv("SFR_VALID:C2FEN1") 
....................    #word C2FEN1=getenv("SFR:C2FEN1") 
.................... #endif 
....................  
.................... /////////////////////////////////////////////////////////////////////////////// 
....................  
.................... enum CAN_FILTER_ASSOCIATION { F0BP=0x00, F1BP=0x01, F2BP=0x02, F3BP=0x03, F4BP=0x04, 
....................                               F5BP=0x05, F6BP=0x06, F7BP=0x07, F8BP=0x08, F9BP=0x09, 
....................                               F10BP=0x0A,F11BP=0x0B,F12BP=0x0C,F13BP=0x0D,F14BP=0x0E, 
....................                               F15BP=0x0F}; 
....................                                
.................... enum CAN_FILTER_ASSOCIATION_BUFFERS { ATRB0=0x00, ATRB1=0x01, ATRB2=0x02, ATRB3=0x03, ATRB4=0x04, 
....................                                       ATRB5=0x05, ATRB6=0x06, ATRB7=0x07, ARB8=0x08, ARB9=0x09, 
....................                                       ARB10=0x0A, ARB11=0x0B, ARB12=0x0C, ARB13=0x0D, ARB14=0x0E, 
....................                                       AFIFO=0x0F}; 
....................  
.................... //ECAN Filter 0-3 Buffer Pointer Register 
.................... struct CiBUFPNT1_struct { 
....................    int f0bp:4;             //0:3    //RX Buffer mask for Filter 0 
....................    int f1bp:4;             //4:7    //RX Buffer mask for Filter 1 
....................    int f2bp:4;             //8:11   //RX Buffer mask for Filter 2 
....................    int f3bp:4;             //12:15  //RX Buffer mask for Filter 3 
.................... }; 
....................  
.................... struct CiBUFPNT1_struct C1BUFPNT1; 
.................... #word C1BUFPNT1=getenv("SFR:C1BUFPNT1") 
....................  
.................... #if getenv("SFR_VALID:C2BUFPNT1") 
....................    struct CiBUFPNT1_struct C2BUFPNT1; 
....................    #word C2BUFPNT1=getenv("SFR:C2BUFPNT1") 
.................... #endif 
....................  
.................... //ECAN Filter 4-7 Buffer Pointer Register 
.................... struct CiBUFPNT2_struct { 
....................    int f4bp:4;             //0:3    //RX Buffer mask for Filter 4 
....................    int f5bp:4;             //4:7    //RX Buffer mask for Filter 5 
....................    int f6bp:4;             //8:11   //RX Buffer mask for Filter 6 
....................    int f7bp:4;             //12:15  //RX Buffer mask for Filter 7 
.................... }; 
....................  
.................... struct CiBUFPNT2_struct C1BUFPNT2; 
.................... #word C1BUFPNT2=getenv("SFR:C1BUFPNT2") 
....................  
.................... #if getenv("SFR_VALID:C2BUFPNT2") 
....................    struct CiBUFPNT2_struct C2BUFPNT2; 
....................    #word C2BUFPNT2=getenv("SFR:C2BUFPNT2") 
.................... #endif 
....................  
.................... //ECAN Filter 8-11 Buffer Pointer Register 
.................... struct CiBUFPNT3_struct { 
....................    int f8bp:4;             //0:3    //RX Buffer mask for Filter 8 
....................    int f9bp:4;             //4:7    //RX Buffer mask for Filter 9 
....................    int f10bp:4;            //8:11   //RX Buffer mask for Filter 10 
....................    int f11bp:4;            //12:15  //RX Buffer mask for Filter 11 
.................... }; 
....................  
.................... struct CiBUFPNT3_struct C1BUFPNT3; 
.................... #word C1BUFPNT3=getenv("SFR:C1BUFPNT3") 
....................  
.................... #if getenv("SFR_VALID:C2BUFPNT3") 
....................    struct CiBUFPNT3_struct C2BUFPNT3; 
....................    #word C2BUFPNT3=getenv("SFR:C2BUFPNT3") 
.................... #endif 
....................  
.................... //ECAN Filter 12-15 Buffer Pointer Register 
.................... struct CiBUFPNT4_struct { 
....................    int f12bp:4;            //0:3    //RX Buffer mask for Filter 12 
....................    int f13bp:4;            //4:7    //RX Buffer mask for Filter 13 
....................    int f14bp:4;            //8:11   //RX Buffer mask for Filter 14 
....................    int f15bp:4;            //12:15  //RX Buffer mask for Filter 15 
.................... }; 
....................  
.................... struct CiBUFPNT4_struct C1BUFPNT4; 
.................... #word C1BUFPNT4=getenv("SFR:C1BUFPNT4") 
....................  
.................... #if getenv("SFR_VALID:C2BUFPNT4") 
....................    struct CiBUFPNT4_struct C2BUFPNT4; 
....................    #word C2BUFPNT4=getenv("SFR:C2BUFPNT4") 
.................... #endif 
....................  
.................... /////////////////////////////////////////////////////////////////////////////// 
....................  
.................... //ECAN Acceptance Filter Standard Identifier Register 
.................... #word C1RXF0SID=getenv("SFR:C1RXF0SID") 
.................... #word C1RXF1SID=getenv("SFR:C1RXF1SID") 
.................... #word C1RXF2SID=getenv("SFR:C1RXF2SID") 
.................... #word C1RXF3SID=getenv("SFR:C1RXF3SID") 
.................... #word C1RXF4SID=getenv("SFR:C1RXF4SID") 
.................... #word C1RXF5SID=getenv("SFR:C1RXF5SID") 
.................... #word C1RXF6SID=getenv("SFR:C1RXF6SID") 
.................... #word C1RXF7SID=getenv("SFR:C1RXF7SID") 
.................... #word C1RXF8SID=getenv("SFR:C1RXF8SID") 
.................... #word C1RXF9SID=getenv("SFR:C1RXF9SID") 
.................... #word C1RXF10SID=getenv("SFR:C1RXF10SID") 
.................... #word C1RXF11SID=getenv("SFR:C1RXF11SID") 
.................... #word C1RXF12SID=getenv("SFR:C1RXF12SID") 
.................... #word C1RXF13SID=getenv("SFR:C1RXF13SID") 
.................... #word C1RXF14SID=getenv("SFR:C1RXF14SID") 
.................... #word C1RXF15SID=getenv("SFR:C1RXF15SID") 
....................  
.................... #if getenv("SFR_VALID:C2RXF0SID") 
....................    #word C2RXF0SID=getenv("SFR:C2RXF0SID") 
....................    #word C2RXF1SID=getenv("SFR:C2RXF1SID") 
....................    #word C2RXF2SID=getenv("SFR:C2RXF2SID") 
....................    #word C2RXF3SID=getenv("SFR:C2RXF3SID") 
....................    #word C2RXF4SID=getenv("SFR:C2RXF4SID") 
....................    #word C2RXF5SID=getenv("SFR:C2RXF5SID") 
....................    #word C2RXF6SID=getenv("SFR:C2RXF6SID") 
....................    #word C2RXF7SID=getenv("SFR:C2RXF7SID") 
....................    #word C2RXF8SID=getenv("SFR:C2RXF8SID") 
....................    #word C2RXF9SID=getenv("SFR:C2RXF9SID") 
....................    #word C2RXF10SID=getenv("SFR:C2RXF10SID") 
....................    #word C2RXF11SID=getenv("SFR:C2RXF11SID") 
....................    #word C2RXF12SID=getenv("SFR:C2RXF12SID") 
....................    #word C2RXF13SID=getenv("SFR:C2RXF13SID") 
....................    #word C2RXF14SID=getenv("SFR:C2RXF14SID") 
....................    #word C2RXF15SID=getenv("SFR:C2RXF15SID") 
.................... #endif 
....................  
.................... //ECAN Acceptance Filter Extended Identifier Register 
.................... #word C1RXF0=getenv("SFR:C1RXF0EID") 
.................... #word C1RXF1=getenv("SFR:C1RXF1EID") 
.................... #word C1RXF2=getenv("SFR:C1RXF2EID") 
.................... #word C1RXF3=getenv("SFR:C1RXF3EID") 
.................... #word C1RXF4=getenv("SFR:C1RXF4EID") 
.................... #word C1RXF5=getenv("SFR:C1RXF5EID") 
.................... #word C1RXF6=getenv("SFR:C1RXF6EID") 
.................... #word C1RXF7=getenv("SFR:C1RXF7EID") 
.................... #word C1RXF8=getenv("SFR:C1RXF8EID") 
.................... #word C1RXF9=getenv("SFR:C1RXF9EID") 
.................... #word C1RXF10=getenv("SFR:C1RXF10EID") 
.................... #word C1RXF11=getenv("SFR:C1RXF11EID") 
.................... #word C1RXF12=getenv("SFR:C1RXF12EID") 
.................... #word C1RXF13=getenv("SFR:C1RXF13EID") 
.................... #word C1RXF14=getenv("SFR:C1RXF14EID") 
.................... #word C1RXF15=getenv("SFR:C1RXF15EID") 
....................  
.................... #if getenv("SFR_VALID:C2RXF0EID") 
....................    #word C2RXF0=getenv("SFR:C2RXF0EID") 
....................    #word C2RXF1=getenv("SFR:C2RXF1EID") 
....................    #word C2RXF2=getenv("SFR:C2RXF2EID") 
....................    #word C2RXF3=getenv("SFR:C2RXF3EID") 
....................    #word C2RXF4=getenv("SFR:C2RXF4EID") 
....................    #word C2RXF5=getenv("SFR:C2RXF5EID") 
....................    #word C2RXF6=getenv("SFR:C2RXF6EID") 
....................    #word C2RXF7=getenv("SFR:C2RXF7EID") 
....................    #word C2RXF8=getenv("SFR:C2RXF8EID") 
....................    #word C2RXF9=getenv("SFR:C2RXF9EID") 
....................    #word C2RXF10=getenv("SFR:C2RXF10EID") 
....................    #word C2RXF11=getenv("SFR:C2RXF11EID") 
....................    #word C2RXF12=getenv("SFR:C2RXF12EID") 
....................    #word C2RXF13=getenv("SFR:C2RXF13EID") 
....................    #word C2RXF14=getenv("SFR:C2RXF14EID") 
....................    #word C2RXF15=getenv("SFR:C2RXF15EID") 
.................... #endif 
....................  
.................... //////////////////////////////////////////////////////////////////////////////// 
....................  
.................... enum CAN_MASK_FILTER_ASSOCIATION { ACCEPTANCE_MASK_0=0, ACCEPTANCE_MASK_1=1, 
....................                                    ACCEPTANCE_MASK_2=2, NO_MASK=3}; 
....................  
.................... // ECAN Filter 7-0 Mask Selection Register 
.................... struct CiFMSKSEL1_struct { 
....................    int f0msk:2;            //0:1    // Mask Source for Filter 0 bits 
....................    int f1msk:2;            //2:3    // Mask Source for Filter 1 bits 
....................    int f2msk:2;            //4:5    // Mask Source for Filter 2 bits 
....................    int f3msk:2;            //6:7    // Mask Source for Filter 3 bits 
....................    int f4msk:2;            //8:9    // Mask Source for Filter 4 bits 
....................    int f5msk:2;            //10:11  // Mask Source for Filter 5 bits 
....................    int f6msk:2;            //12:13  // Mask Source for Filter 6 bits 
....................    int f7msk:2;            //14:15  // Mask Source for Filter 7 bits 
.................... }; 
....................  
.................... struct CiFMSKSEL1_struct C1FMSKSEL1; 
.................... #word C1FMSKSEL1=getenv("SFR:C1FMSKSEL1") 
....................  
.................... #if getenv("SFR_VALID:C2FMSKSEL1") 
....................    struct CiFMSKSEL1_struct C2FMSKSEL1; 
....................    #word C2FMSKSEL1=getenv("SFR:C2FMSKSEL1") 
.................... #endif 
....................  
.................... // ECAN Filter 15-8 Mask Selection Register 
.................... struct CiFMSKSEL2_struct { 
....................    int f8msk:2;            //0:1    // Mask Source for Filter 8 bits 
....................    int f9msk:2;            //2:3    // Mask Source for Filter 9 bits 
....................    int f10msk:2;           //4:5    // Mask Source for Filter 10 bits 
....................    int f11msk:2;           //6:7    // Mask Source for Filter 11 bits 
....................    int f12msk:2;           //8:9    // Mask Source for Filter 12 bits 
....................    int f13msk:2;           //10:11  // Mask Source for Filter 13 bits 
....................    int f14msk:2;           //12:13  // Mask Source for Filter 14 bits 
....................    int f15msk:2;           //14:15  // Mask Source for Filter 15 bits 
.................... }; 
....................  
.................... struct CiFMSKSEL2_struct C1FMSKSEL2; 
.................... #word C1FMSKSEL2=getenv("SFR:C1FMSKSEL2") 
....................  
.................... #if getenv("SFR_VALID:C2FMSKSEL2") 
....................    struct CiFMSKSEL2_struct C2FMSKSEL2; 
....................    #word C2FMSKSEL2=getenv("SFR:C2FMSKSEL2") 
.................... #endif 
....................  
.................... // ECAN Acceptance Filter Mask Standard Identifier Register 
.................... #word C1RXM0SID=getenv("SFR:C1RXM0SID") 
.................... #word C1RXM1SID=getenv("SFR:C1RXM1SID") 
.................... #word C1RXM2SID=getenv("SFR:C1RXM2SID") 
....................  
.................... #if getenv("SFR_VALID:C2RXM0SID") 
....................    #word C2RXM0SID=getenv("SFR:C2RXM0SID") 
....................    #word C2RXM1SID=getenv("SFR:C2RXM1SID") 
....................    #word C2RXM2SID=getenv("SFR:C2RXM2SID") 
.................... #endif 
....................  
.................... // ECAN Acceptance Filter Mask Extended Identifier Register 
.................... #word C1RXM0=getenv("SFR:C1RXM0EID") 
.................... #word C1RXM1=getenv("SFR:C1RXM1EID") 
.................... #word C1RXM2=getenv("SFR:C1RXM1EID") 
....................  
.................... #if getenv("SFR_VALID:C2RXM0EID") 
....................    #word C2RXM0=getenv("SFR:C2RXM0EID") 
....................    #word C2RXM1=getenv("SFR:C2RXM1EID") 
....................    #word C2RXM2=getenv("SFR:C2RXM2EID") 
.................... #endif 
....................  
.................... //////////////////////////////////////////////////////////////////////////////// 
....................  
.................... enum BUFFER { TRB0=0, TRB1=1, TRB2=2, TRB3=3, TRB4=4, TRB5=5, TRB6=6, TRB7=7, RB8=8, 
....................               RB9=9, RB10=10, RB11=11, RB12=12, RB13=13, RB14=14, RB15=15, RB16=16, 
....................               RB17=17, RB18=18, RB19=19, RB20=20, RB21=21, RB22=22, RB23=23, RB24=24, 
....................               RB25=25, RB26=26, RB27=27, RB28=28, RB29=29, RB30=30, RB31=31}; 
....................  
.................... // ECAN Receive Buffer Full Register 1 
.................... struct CiRXFUL1_struct { 
....................    int1 rxful0;            //0      //receive buffer 0 full bit 
....................    int1 rxful1;            //1      //receive buffer 1 full bit 
....................    int1 rxful2;            //2      //receive buffer 2 full bit 
....................    int1 rxful3;            //3      //receive buffer 3 full bit 
....................    int1 rxful4;            //4      //receive buffer 4 full bit 
....................    int1 rxful5;            //5      //receive buffer 5 full bit 
....................    int1 rxful6;            //6      //receive buffer 6 full bit 
....................    int1 rxful7;            //7      //receive buffer 7 full bit 
....................    int1 rxful8;            //8      //receive buffer 8 full bit 
....................    int1 rxful9;            //9      //receive buffer 9 full bit 
....................    int1 rxful10;           //10     //receive buffer 10 full bit 
....................    int1 rxful11;           //11     //receive buffer 11 full bit 
....................    int1 rxful12;           //12     //receive buffer 12 full bit 
....................    int1 rxful13;           //13     //receive buffer 13 full bit 
....................    int1 rxful14;           //14     //receive buffer 14 full bit 
....................    int1 rxful15;           //15     //receive buffer 15 full bit 
.................... }; 
....................  
.................... struct CiRXFUL1_struct C1RXFUL1;    
.................... #word C1RXFUL1=getenv("SFR:C1RXFUL1") 
....................  
.................... #if getenv("SFR_VALID:C2RXFUL1") 
....................    struct CiRXFUL1_struct C2RXFUL1; 
....................    #word C2RXFUL1=getenv("SFR:C2RXFUL1") 
.................... #endif 
....................  
.................... // ECAN Receive Buffer Full Register 2 
.................... struct CiRXFUL2_struct { 
....................    int1 rxful16;           //0      //receive buffer 16 full bit 
....................    int1 rxful17;           //1      //receive buffer 17 full bit 
....................    int1 rxful18;           //2      //receive buffer 18 full bit 
....................    int1 rxful19;           //3      //receive buffer 19 full bit 
....................    int1 rxful20;           //4      //receive buffer 20 full bit 
....................    int1 rxful21;           //5      //receive buffer 21 full bit 
....................    int1 rxful22;           //6      //receive buffer 22 full bit 
....................    int1 rxful23;           //7      //receive buffer 23 full bit 
....................    int1 rxful24;           //8      //receive buffer 24 full bit 
....................    int1 rxful25;           //9      //receive buffer 25 full bit 
....................    int1 rxful26;           //10     //receive buffer 26 full bit 
....................    int1 rxful27;           //11     //receive buffer 27 full bit 
....................    int1 rxful28;           //12     //receive buffer 28 full bit 
....................    int1 rxful29;           //13     //receive buffer 29 full bit 
....................    int1 rxful30;           //14     //receive buffer 30 full bit 
....................    int1 rxful31;           //15     //receive buffer 31 full bit 
.................... }; 
....................  
.................... struct CiRXFUL2_struct C1RXFUL2; 
.................... #word C1RXFUL2=getenv("SFR:C1RXFUL2") 
....................  
.................... #if getenv("SFR_VALID:C2RXFUL2") 
....................    struct CiRXFUL2_struct C2RXFUL2; 
....................    #word C2RXFUL2=getenv("SFR:C2RXFUL2") 
.................... #endif 
....................  
.................... // ECAN Receive Buffer Overflow Register 1 
.................... struct CiRXOVF1_struct { 
....................    int1 rxovf0;            //0      //receive buffer 0 overflow bit 
....................    int1 rxovf1;            //1      //receive buffer 1 overflow bit 
....................    int1 rxovf2;            //2      //receive buffer 2 overflow bit 
....................    int1 rxovf3;            //3      //receive buffer 3 overflow bit 
....................    int1 rxovf4;            //4      //receive buffer 4 overflow bit 
....................    int1 rxovf5;            //5      //receive buffer 5 overflow bit 
....................    int1 rxovf6;            //6      //receive buffer 6 overflow bit 
....................    int1 rxovf7;            //7      //receive buffer 7 overflow bit 
....................    int1 rxovf8;            //8      //receive buffer 8 overflow bit 
....................    int1 rxovf9;            //9      //receive buffer 9 overflow bit 
....................    int1 rxovf10;           //10     //receive buffer 10 overflow bit 
....................    int1 rxovf11;           //11     //receive buffer 11 overflow bit 
....................    int1 rxovf12;           //12     //receive buffer 12 overflow bit 
....................    int1 rxovf13;           //13     //receive buffer 13 overflow bit 
....................    int1 rxovf14;           //14     //receive buffer 14 overflow bit 
....................    int1 rxovf15;           //15     //receive buffer 15 overflow bit 
.................... }; 
....................  
.................... struct CiRXOVF1_struct C1RXOVF1; 
.................... #word C1RXOVF1=getenv("SFR:C1RXOVF1") 
....................  
.................... #if getenv("SFR_VALID:C2RXOVF1") 
....................    struct CiRXOVF1_struct C2RXOVF1; 
....................    #word C2RXOVF1=getenv("SFR:C2RXOVF1") 
.................... #endif 
....................  
.................... // ECAN Receive Buffer Overflow Register 2 
.................... struct CiRXOVF2_struct { 
....................    int1 rxovf16;           //0      //receive buffer 16 overflow bit 
....................    int1 rxovf17;           //1      //receive buffer 17 overflow bit 
....................    int1 rxovf18;           //2      //receive buffer 18 overflow bit 
....................    int1 rxovf19;           //3      //receive buffer 19 overflow bit 
....................    int1 rxovf20;           //4      //receive buffer 20 overflow bit 
....................    int1 rxovf21;           //5      //receive buffer 21 overflow bit 
....................    int1 rxovf22;           //6      //receive buffer 22 overflow bit 
....................    int1 rxovf23;           //7      //receive buffer 23 overflow bit 
....................    int1 rxovf24;           //8      //receive buffer 24 overflow bit 
....................    int1 rxovf25;           //9      //receive buffer 25 overflow bit 
....................    int1 rxovf26;           //10     //receive buffer 26 overflow bit 
....................    int1 rxovf27;           //11     //receive buffer 27 overflow bit 
....................    int1 rxovf28;           //12     //receive buffer 28 overflow bit 
....................    int1 rxovf29;           //13     //receive buffer 29 overflow bit 
....................    int1 rxovf30;           //14     //receive buffer 30 overflow bit 
....................    int1 rxovf31;           //15     //receive buffer 31 overflow bit 
.................... }; 
....................  
.................... struct CiRXOVF2_struct C1RXOVF2; 
.................... #word C1RXOVF2=getenv("SFR:C1RXOVF2") 
....................  
.................... #if getenv("SFR_VALID:C2RXOVF2") 
....................    struct CiRXOVF2_struct C2RXOVF2; 
....................    #word C2RXOVF2=getenv("SFR:C2RXOVF2") 
.................... #endif 
....................  
.................... //////////////////////////////////////////////////////////////////////////////// 
....................  
.................... // ECAN Tx/Rx Buffer m Control Register 
.................... struct CiTRmnCON_struct { 
....................    int txmpri:2;           //0:1    // Message Transmission Priority bits 
....................    int1 rtrenm;            //2      // Auto-Remote Transmit Enable bit 
....................    int1 txreqm;            //3      // Message Send Request bit 
....................    int1 txerrm;            //4      // Error Detected During Transmission bit 
....................    int1 txlarbm;           //5      // Message Lost Arbitration bit 
....................    int1 txabtm;            //6      // Message Aborted bit 
....................    int1 txenm;             //7      // Tx/Rx Buffer Selection bit 
....................    int txnpri:2;           //8:9    // Message Transmission Priority bits 
....................    int1 rtrenn;            //10     // Auto-Remote Transmit Enable bit 
....................    int1 txreqn;            //11     // Message Send Request bit 
....................    int1 txerrn;            //12     // Error Detected During Transmission bit 
....................    int1 txlarbn;           //13     // Message Lost Arbitration bit 
....................    int1 txabtn;            //14     // Message Aborted bit 
....................    int1 txenn;             //15     // Tx/Rx Buffer Selection bit 
.................... }; 
....................  
.................... struct CiTRmnCON_struct C1TR01CON; 
.................... struct CiTRmnCON_struct C1TR23CON; 
.................... struct CiTRmnCON_struct C1TR45CON; 
.................... struct CiTRmnCON_struct C1TR67CON; 
.................... #word C1TR01CON=getenv("SFR:C1TR01CON") 
.................... #word C1TR23CON=getenv("SFR:C1TR23CON") 
.................... #word C1TR45CON=getenv("SFR:C1TR45CON") 
.................... #word C1TR67CON=getenv("SFR:C1TR67CON") 
....................  
.................... #if getenv("SFR_VALID:C2TR01CON") 
....................    struct CiTRmnCON_struct C2TR01CON; 
....................    struct CiTRmnCON_struct C2TR23CON; 
....................    struct CiTRmnCON_struct C2TR45CON; 
....................    struct CiTRmnCON_struct C2TR67CON; 
....................    #word C2TR01CON=getenv("SFR:C2TR01CON") 
....................    #word C2TR23CON=getenv("SFR:C2TR23CON") 
....................    #word C2TR45CON=getenv("SFR:C2TR45CON") 
....................    #word C2TR67CON=getenv("SFR:C2TR67CON") 
.................... #endif 
....................  
.................... #word C1RXD=getenv("SFR:C1RXD") 
.................... #word C1TXD=getenv("SFR:C1TXD") 
....................  
.................... #if getenv("SFR_VALID:C2RXD") 
....................    #word C2RXD=getenv("SFR:C2RXD") 
....................    #word C2TXD=getenv("SFR:C2TXD") 
.................... #endif 
....................  
.................... //////////////////////////////////////////////////////////////////////////////// 
....................  
.................... // ECAN Interrupt Code Register 
.................... struct CiVEC_struct { 
....................    int icode:7;            //0:6    // Interrupt Flag Code bits 
....................    int1 void7;             //7 
....................    int filhit:5;           //8:12   // Filter Hit Number bits 
....................    int void15_13:3;        //13:15 
.................... }; 
....................  
.................... struct CiVEC_struct C1VEC; 
.................... #word C1VEC=getenv("SFR:C1VEC") 
....................  
.................... #if getenv("SFR_VALID:C2VEC") 
....................    struct CiVEC_struct C2VEC; 
....................    #word C2VEC=getenv("SFR:C2VEC") 
.................... #endif 
....................  
.................... // ECAN FIF0 Control Register 
.................... struct CiFCTRL_struct { 
....................    int fsa:5;              //0:4    // FIFO Area Starts with Buffer bits 
....................    int void12_5:8;         //5:12 
....................    int dmabs:3;            //13:15  // DMA Buffer Size bits 
.................... }; 
....................  
.................... struct CiFCTRL_struct C1FCTRL; 
.................... #word C1FCTRL=getenv("SFR:C1FCTRL") 
....................  
.................... #if getenv("SFR_VALID:C2FCTRL") 
....................    struct CiFCTRL_struct C2FCTRL; 
....................    #word C2FCTRL=getenv("SFR:C2FCTRL") 
.................... #endif 
....................  
.................... // ECAN FIF0 Status Register 
.................... struct CiFIFO_struct { 
....................    int fnrb:6;             //0:5    // FIFO Next Read Buffer Pointer bits 
....................    int void76:2;           //6:7 
....................    int fbp:6;              //8:13   // FIFO Buffer Pointer bits 
....................    int void15_14:2;        //14:15 
.................... }; 
....................  
.................... struct CiFIFO_struct C1FIFO; 
.................... #word C1FIFO=getenv("SFR:C1FIFO") 
....................  
.................... #if getenv("SFR_VALID:C2FIFO") 
....................    struct CiFIFO_struct C2FIFO; 
....................    #word C2FIFO=getenv("SFR:C2FIFO") 
.................... #endif 
....................  
.................... // ECAN Interrupt Flag Register 
.................... struct CiINTF_struct { 
....................    int1 tbif;              //0      // TX Buffer Interrupt flag bit 
....................    int1 rbif;              //1      // rx buffer interrupt flag bit 
....................    int1 rbobif;            //2      // rx buffer overflow interrupt flag bit 
....................    int1 fifoif;            //3      // fifo almost full interrupt flag bit 
....................    int1 void4;             //4 
....................    int1 errif;             //5      // error interrupt flag bit 
....................    int1 wakif;             //6      // bus wake-up activity interrupt flag bit 
....................    int1 ivrif;             //7      // invalid message received interrupt flag bit 
....................    int1 ewarn;             //8      // transmitter or receiver in error state warning bit 
....................    int1 rxwar;             //9      // receiver in error state warning bit 
....................    int1 txwar;             //10     // transmitter in error state warning bit 
....................    int1 rxbp;              //11     // receiver in error state bus passive bit 
....................    int1 txbp;              //12     // transmitter in error state bus passive bit 
....................    int1 txbo;              //13     // transmitter in error state bus off bit 
....................    int void15_14:2;        //14:15 
.................... }; 
....................  
.................... struct CiINTF_struct C1INTF; 
.................... #word C1INTF=getenv("SFR:C1INTF") 
....................  
.................... #if getenv("SFR_VALID:C2INTF") 
....................    struct CiINTF_struct C2INTF; 
....................    #word C2INTF=getenv("SFR:C2INTF") 
.................... #endif 
....................  
.................... enum INTERRUPT {TB=0x01,RB=0x02,RXOV=0x04,FIFO=0x08,ERR=0x20,WAK=0x40,IVR=0x80}; 
....................  
.................... // ECAN Interrupt Enable Register 
.................... typedef struct { 
....................    int1 tbie;              //0      //tx buffer interrupt enable bit 
....................    int1 rbie;              //1      //rx buffer interrupt enable bit 
....................    int1 rbovie;            //2      //rx buffer overflow interrupt enable bit 
....................    int1 fifoie;            //3      //fifo almost full interrupt enable bit 
....................    int1 void4;             //4 
....................    int1 errie;             //5      //error interrupt enable bit 
....................    int1 wakie;             //6      //bus wake-up activity interrupt enable bit 
....................    int1 ivrie;             //7      //invalid message received interrupt enable bit 
....................    uint8_t void15_8;       //8:15 
.................... }CiINTE_struct; 
....................  
.................... CiINTE_struct C1INTE; 
.................... #word C1INTE=getenv("SFR:C1INTE") 
....................  
.................... #if getenv("SFR_VALID:C2INTE") 
....................    CiINTE_struct C2INTE; 
....................    #word C2INTE=getenv("SFR:C2INTE") 
.................... #endif 
....................  
.................... //////////////////////////////////////////////////////////////////////////////// 
....................  
.................... //value to put in mask field to accept all incoming id's 
.................... #define CAN_MASK_ACCEPT_ALL   0 
....................  
.................... //PROTOTYPES 
....................  
.................... typedef struct rx_stat { 
....................    uint8_t filthit;     // filter that allowed the frame into the buffer 
....................    uint8_t buffer;      // receive buffer 
....................    int1 err_ovfl;       // buffer overflow 
....................    int1 rtr;            // rtr requested 
....................    int1 ext;            // extended id 
....................    int1 inv;            // invalid id? 
.................... } rx_stat; 
....................  
.................... void can_init(void); 
.................... void can_set_baud(void); 
.................... void can_set_mode(CAN_OP_MODE mode); 
.................... void can_set_id(uint16_t *addr, uint32_t id, int1 ext); 
.................... void can_set_buffer_id(BUFFER buffer, uint32_t id, int1 ext); 
.................... void can_set_buffer_size(uint8_t size); 
.................... uint32_t can_get_id(BUFFER buffer, int1 ext); 
.................... int1 can_putd(uint32_t id, uint8_t *data, uint8_t len, uint8_t priority, int1 ext, int1 rtr); 
.................... int1 can_getd(uint32_t &id, uint8_t *data, uint8_t &len, struct rx_stat &stat); 
.................... void can_enable_b_transfer(BUFFER b); 
.................... void can_enable_b_receiver(BUFFER b); 
.................... void can_enable_rtr(BUFFER b); 
.................... void can_disable_rtr(BUFFER b); 
.................... void can_load_rtr (BUFFER b, uint8_t *data, uint8_t len); 
.................... void can_enable_filter(CAN_FILTER_CONTROL filter); 
.................... void can_disable_filter(CAN_FILTER_CONTROL filter); 
.................... void can_associate_filter_to_buffer(CAN_FILTER_ASSOCIATION_BUFFERS buffer, CAN_FILTER_ASSOCIATION filter); 
.................... void can_associate_filter_to_mask(CAN_MASK_FILTER_ASSOCIATION mask, CAN_FILTER_ASSOCIATION filter); 
.................... int1 can_fifo_getd(uint32_t &id, uint8_t *data, uint8_t &len, struct rx_stat &stat ); 
.................... void can_config_DMA(void); 
.................... void can_enable_interrupts(INTERRUPT setting); 
.................... void can_disable_interrupt(INTERRUPT setting); 
....................  
....................  
.................... #if getenv("SFR_VALID:C2CTRL1") 
....................    void can2_init(void); 
....................    void can2_set_baud(void); 
....................    void can2_set_mode(CAN_OP_MODE mode); 
....................    void can2_set_id(uint16_t *addr, uint32_t id, int1 ext); 
....................    void can2_set_buffer_id(BUFFER buffer, uint32_t id, int1 ext); 
....................    void can2_set_buffer_size(uint8_t size); 
....................    uint32_t can2_get_id(BUFFER buffer, int1 ext); 
....................    int1 can2_putd(uint32_t id, uint8_t *data, uint8_t len, uint8_t priority, int1 ext, int1 rtr); 
....................    int1 can2_getd(uint32_t &id, uint8_t *data, uint8_t &len, struct rx_stat & stat); 
....................    void can2_enable_b_transfer(BUFFER b); 
....................    void can2_enable_b_receiver(BUFFER b); 
....................    void can2_enable_rtr(BUFFER b); 
....................    void can2_disable_rtr(BUFFER b); 
....................    void can2_load_rtr (BUFFER b, uint8_t *data, uint8_t len); 
....................    void can2_enable_filter(CAN_FILTER_CONTROL filter); 
....................    void can2_disable_filter(CAN_FILTER_CONTROL filter); 
....................    void can2_associate_filter_to_buffer(CAN_FILTER_ASSOCIATION_BUFFERS buffer, CAN_FILTER_ASSOCIATION filter); 
....................    void can2_associate_filter_to_mask(CAN_MASK_FILTER_ASSOCIATION mask, CAN_FILTER_ASSOCIATION filter); 
....................    int1 can2_fifo_getd(uint32_t &id, uint8_t *data, uint8_t &len, struct rx_stat &stat ); 
....................    void can2_config_DMA(void); 
....................    void can2_enable_interrupts(INTERRUPT setting); 
....................    void can2_disable_interrupt(INTERRUPT setting); 
.................... #endif 
....................  
.................... #endif 
....................  
....................  
.................... #if CAN_DO_DEBUG 
....................  #define can_debug printf 
.................... #else 
....................  #define can_debug 
.................... #endif 
....................  
.................... //macros 
.................... #define can_kbhit() (((uint16_t)C1RXFUL1) || ((uint16_t)C1RXFUL2)) 
....................                          
.................... #define can_tbe() ((C1TR01CON.txenm && !C1TR01CON.txreqm) || (C1TR01CON.txenn && !C1TR01CON.txreqn) || (C1TR23CON.txenm && !C1TR23CON.txreqm) || (C1TR23CON.txenn && !C1TR23CON.txreqn) || (C1TR45CON.txenm && !C1TR45CON.txreqm) || (C1TR45CON.txenn && !C1TR45CON.txreqn) || (C1TR67CON.txenm && !C1TR67CON.txreqm) || (C1TR67CON.txenn && !C1TR67CON.txreqn)) 
....................  
.................... #define can_tx_is_empty() ((!C1TR01CON.txenm || !C1TR01CON.txreqm) && (!C1TR01CON.txenn || !C1TR01CON.txreqn) && (!C1TR23CON.txenm || !C1TR23CON.txreqm) && (!C1TR23CON.txenn || !C1TR23CON.txreqn) && (!C1TR45CON.txenm || !C1TR45CON.txreqm) && (!C1TR45CON.txenn || !C1TR45CON.txreqn) && (!C1TR67CON.txenm || !C1TR67CON.txreqm) && (!C1TR67CON.txenn || !C1TR67CON.txreqn)) 
....................  
.................... #define can_abort()                 (C1CTRL1.abat=1) 
....................  
.................... #if getenv("SFR_VALID:C2CTRL1") 
....................    #define can2_kbhit() (((uint16_t)C2RXFUL1) || ((uint16_t)C2RXFUL2))    
....................    #define can2_tbe() ((C2TR01CON.txenm && !C2TR01CON.txreqm) || (C2TR01CON.txenn && !C2TR01CON.txreqn) || (C2TR23CON.txenm && !C2TR23CON.txreqm) || (C2TR23CON.txenn && !C2TR23CON.txreqn) || (C2TR45CON.txenm && !C2TR45CON.txreqm) || (C2TR45CON.txenn && !C2TR45CON.txreqn) || ( C2TR67CON.txenm && !C2TR67CON.txreqm) || (C2TR67CON.txenn && !C2TR67CON.txreqn)) 
....................    #define can2_abort()                 (C2CTRL1.abat=1) 
.................... #endif 
....................  
.................... // current mode variable 
.................... // used by many of the device drivers to prevent damage from the mode 
.................... CAN_OP_MODE curmode; 
....................  
.................... // Buffer for CAN1 
.................... #if CAN_BUFFER_SIZE==4  
....................    #BANK_DMA 
....................    uint16_t ecan1_message_buffer[4][8]; 
.................... #elif CAN_BUFFER_SIZE==6 
....................    #BANK_DMA 
....................    uint16_t ecan1_message_buffer[6][8]; 
.................... #elif CAN_BUFFER_SIZE==8 
....................    #BANK_DMA 
....................    uint16_t ecan1_message_buffer[8][8]; 
.................... #elif CAN_BUFFER_SIZE==12 
....................    #BANK_DMA 
....................    uint16_t ecan1_message_buffer[12][8]; 
.................... #elif CAN_BUFFER_SIZE==16 
....................    #BANK_DMA 
....................    uint16_t ecan1_message_buffer[16][8]; 
.................... #elif CAN_BUFFER_SIZE==24 
....................    #BANK_DMA 
....................    uint16_t ecan1_message_buffer[24][8]; 
.................... #else 
....................    #BANK_DMA 
....................    uint16_t ecan1_message_buffer[32][8];    
.................... #endif 
....................  
.................... #if getenv("ENH24") == TRUE 
....................   #if (getenv("DEVICE") != "PIC24EP256GU810") && (getenv("DEVICE") != "PIC24EP256GU814") && \ 
....................          (getenv("DEVICE") != "PIC24EP512GP806") && (getenv("DEVICE") != "PIC24EP512GU810") && (getenv("DEVICE") != "PIC24EP512GU814") && \ 
....................          (getenv("DEVICE") != "DSPIC33EP256MU806") && (getenv("DEVICE") != "DSPIC33EP256MU810") && (getenv("DEVICE") != "DSPIC33EP256MU814") && \ 
....................          (getenv("DEVICE") != "DSPIC33EP512GP806") && (getenv("DEVICE") != "DSPIC33EP512MC806") && (getenv("DEVICE") != "DSPIC33EP512MU810") && (getenv("DEVICE") != "DSPIC33EP512MU814") 
....................    #locate ecan1_message_buffer = 0x1200  //changed this address incase code is being debugged 
....................   #endif 
.................... #endif 
....................  
.................... // Buffer for CAN2 
.................... #if getenv("SFR_VALID:C2CTRL1") 
....................    #if CAN2_BUFFER_SIZE==4  
....................       #BANK_DMA 
....................       uint16_t ecan2_message_buffer[4][8]; 
....................    #elif CAN2_BUFFER_SIZE==6 
....................       #BANK_DMA 
....................       uint16_t ecan2_message_buffer[6][8]; 
....................    #elif CAN2_BUFFER_SIZE==8 
....................       #BANK_DMA 
....................       uint16_t ecan2_message_buffer[8][8]; 
....................    #elif CAN2_BUFFER_SIZE==12 
....................       #BANK_DMA 
....................       uint16_t ecan2_message_buffer[12][8]; 
....................    #elif CAN2_BUFFER_SIZE==16 
....................       #BANK_DMA 
....................       uint16_t ecan2_message_buffer[16][8]; 
....................    #elif CAN2_BUFFER_SIZE==24 
....................       #BANK_DMA 
....................       uint16_t ecan2_message_buffer[24][8]; 
....................    #else 
....................       #BANK_DMA 
....................       uint16_t ecan2_message_buffer[32][8]; 
....................    #endif 
....................     
....................    #if getenv("ENH24") == TRUE 
....................      #if (getenv("DEVICE") != "PIC24EP256GU810") && (getenv("DEVICE") != "PIC24EP256GU814") && \ 
....................          (getenv("DEVICE") != "PIC24EP512GP806") && (getenv("DEVICE") != "PIC24EP512GU810") && (getenv("DEVICE") != "PIC24EP512GU814") && \ 
....................          (getenv("DEVICE") != "DSPIC33EP256MU806") && (getenv("DEVICE") != "DSPIC33EP256MU810") && (getenv("DEVICE") != "DSPIC33EP256MU814") && \ 
....................          (getenv("DEVICE") != "DSPIC33EP512GP806") && (getenv("DEVICE") != "DSPIC33EP512MC806") && (getenv("DEVICE") != "DSPIC33EP512MU810") && (getenv("DEVICE") != "DSPIC33EP512MU814") 
....................       #locate ecan2_message_buffer = 0x1400  //changed this address incase code is being debugged 
....................      #endif 
....................    #endif 
....................  
.................... #endif 
....................  
.................... //////////////////////////////////////////////////////////////////////////////// 
.................... // 
.................... // can_init() 
.................... // can2_init() 
.................... // 
.................... // Initializes PIC24 CAN peripheral.  Sets the RX filter and masks so the 
.................... // CAN peripheral will receive all incoming IDs. Enables Filter 0 and associates 
.................... // it with the FIFO buffer. 
.................... // 
.................... // The constant (CAN_ENABLE_CAN_CAPTURE) are given a default define in the  
.................... // can-PIC24.h file.  These default values can be overwritten in the main code,  
.................... // but most applications will be fine with these defaults. 
.................... // 
.................... //////////////////////////////////////////////////////////////////////////////// 
.................... void can_init(void) { 
....................    can_set_mode(CAN_OP_CONFIG);   //must be in config mode before params can be set 
*
00A3E:  MOV.B   #4,W0L
00A40:  MOV.B   W0L,1040
00A42:  CALL    6E4
....................     
....................    C1CTRL1.cancap=CAN_ENABLE_CAN_CAPTURE; 
00A46:  BCLR.B  400.3
....................    C1CTRL1.cancks=CAN_CANCKS; 
00A48:  BCLR.B  401.3
....................    can_set_baud(); 
00A4A:  CALL    700
....................     
....................    can_set_buffer_size(CAN_BUFFER_SIZE);      // sets size of DMA buffer to use 
00A4E:  MOV.B   #20,W0L
00A50:  MOV.B   W0L,1036
00A52:  CALL    73C
....................    can_config_DMA();    
00A56:  CALL    7CE
....................     
....................    can_set_id(&C1RXM0, CAN_MASK_ACCEPT_ALL, CAN_USE_EXTENDED_ID);  //set mask 0 
00A5A:  CLR.B   103C
00A5C:  MOV     #432,W4
00A5E:  MOV     W4,1036
00A60:  CLR     1038
00A62:  CLR     103A
00A64:  CALL    80A
....................    can_set_id(&C1RXM1, CAN_MASK_ACCEPT_ALL, CAN_USE_EXTENDED_ID);  //set mask 1 
00A68:  CLR.B   103C
00A6A:  MOV     #436,W4
00A6C:  MOV     W4,1036
00A6E:  CLR     1038
00A70:  CLR     103A
00A72:  CALL    80A
....................    can_set_id(&C1RXM2, CAN_MASK_ACCEPT_ALL, CAN_USE_EXTENDED_ID);  //set mask 2 
00A76:  CLR.B   103C
00A78:  MOV     #436,W4
00A7A:  MOV     W4,1036
00A7C:  CLR     1038
00A7E:  CLR     103A
00A80:  CALL    80A
....................     
....................    // set dynamic filters 
....................    can_set_id(&C1RXF0, 0, CAN_USE_EXTENDED_ID);  
00A84:  CLR.B   103C
00A86:  MOV     #442,W4
00A88:  MOV     W4,1036
00A8A:  CLR     1038
00A8C:  CLR     103A
00A8E:  CALL    80A
....................    can_set_id(&C1RXF1, 0, CAN_USE_EXTENDED_ID); 
00A92:  CLR.B   103C
00A94:  MOV     #446,W4
00A96:  MOV     W4,1036
00A98:  CLR     1038
00A9A:  CLR     103A
00A9C:  CALL    80A
....................    can_set_id(&C1RXF2, 0, CAN_USE_EXTENDED_ID); 
00AA0:  CLR.B   103C
00AA2:  MOV     #44A,W4
00AA4:  MOV     W4,1036
00AA6:  CLR     1038
00AA8:  CLR     103A
00AAA:  CALL    80A
....................    can_set_id(&C1RXF3, 0, CAN_USE_EXTENDED_ID); 
00AAE:  CLR.B   103C
00AB0:  MOV     #44E,W4
00AB2:  MOV     W4,1036
00AB4:  CLR     1038
00AB6:  CLR     103A
00AB8:  CALL    80A
....................    can_set_id(&C1RXF4, 0, CAN_USE_EXTENDED_ID); 
00ABC:  CLR.B   103C
00ABE:  MOV     #452,W4
00AC0:  MOV     W4,1036
00AC2:  CLR     1038
00AC4:  CLR     103A
00AC6:  CALL    80A
....................    can_set_id(&C1RXF5, 0, CAN_USE_EXTENDED_ID); 
00ACA:  CLR.B   103C
00ACC:  MOV     #456,W4
00ACE:  MOV     W4,1036
00AD0:  CLR     1038
00AD2:  CLR     103A
00AD4:  CALL    80A
....................    can_set_id(&C1RXF6, 0, CAN_USE_EXTENDED_ID); 
00AD8:  CLR.B   103C
00ADA:  MOV     #45A,W4
00ADC:  MOV     W4,1036
00ADE:  CLR     1038
00AE0:  CLR     103A
00AE2:  CALL    80A
....................    can_set_id(&C1RXF7, 0, CAN_USE_EXTENDED_ID); 
00AE6:  CLR.B   103C
00AE8:  MOV     #45E,W4
00AEA:  MOV     W4,1036
00AEC:  CLR     1038
00AEE:  CLR     103A
00AF0:  CALL    80A
....................    can_set_id(&C1RXF8, 0, CAN_USE_EXTENDED_ID); 
00AF4:  CLR.B   103C
00AF6:  MOV     #462,W4
00AF8:  MOV     W4,1036
00AFA:  CLR     1038
00AFC:  CLR     103A
00AFE:  CALL    80A
....................    can_set_id(&C1RXF9, 0, CAN_USE_EXTENDED_ID); 
00B02:  CLR.B   103C
00B04:  MOV     #466,W4
00B06:  MOV     W4,1036
00B08:  CLR     1038
00B0A:  CLR     103A
00B0C:  CALL    80A
....................    can_set_id(&C1RXF10, 0, CAN_USE_EXTENDED_ID); 
00B10:  CLR.B   103C
00B12:  MOV     #46A,W4
00B14:  MOV     W4,1036
00B16:  CLR     1038
00B18:  CLR     103A
00B1A:  CALL    80A
....................    can_set_id(&C1RXF11, 0, CAN_USE_EXTENDED_ID); 
00B1E:  CLR.B   103C
00B20:  MOV     #46E,W4
00B22:  MOV     W4,1036
00B24:  CLR     1038
00B26:  CLR     103A
00B28:  CALL    80A
....................    can_set_id(&C1RXF12, 0, CAN_USE_EXTENDED_ID); 
00B2C:  CLR.B   103C
00B2E:  MOV     #472,W4
00B30:  MOV     W4,1036
00B32:  CLR     1038
00B34:  CLR     103A
00B36:  CALL    80A
....................    can_set_id(&C1RXF13, 0, CAN_USE_EXTENDED_ID); 
00B3A:  CLR.B   103C
00B3C:  MOV     #476,W4
00B3E:  MOV     W4,1036
00B40:  CLR     1038
00B42:  CLR     103A
00B44:  CALL    80A
....................    can_set_id(&C1RXF14, 0, CAN_USE_EXTENDED_ID); 
00B48:  CLR.B   103C
00B4A:  MOV     #47A,W4
00B4C:  MOV     W4,1036
00B4E:  CLR     1038
00B50:  CLR     103A
00B52:  CALL    80A
....................    can_set_id(&C1RXF15, 0, CAN_USE_EXTENDED_ID); 
00B56:  CLR.B   103C
00B58:  MOV     #47E,W4
00B5A:  MOV     W4,1036
00B5C:  CLR     1038
00B5E:  CLR     103A
00B60:  CALL    80A
....................     
....................    C1FEN1=0; 
00B64:  CLR     414
....................     
....................    can_associate_filter_to_buffer(AFIFO,F0BP); 
00B66:  MOV.B   #F,W0L
00B68:  MOV.B   W0L,1036
00B6A:  CLR.B   1037
00B6C:  CALL    8B8
....................    can_enable_filter(FLTEN0); 
00B70:  MOV     #1,W4
00B72:  MOV     W4,1036
00B74:  CALL    A10
....................     
....................    can_set_mode(CAN_OP_NORMAL); 
00B78:  CLR.B   1040
00B7A:  CALL    6E4
00B7E:  RETURN  
.................... } 
....................  
.................... #if getenv("SFR_VALID:C2CTRL1") 
....................    void can2_init(void) { 
....................       can2_set_mode(CAN_OP_CONFIG);   //must be in config mode before params can be set 
*
00EDA:  MOV.B   #4,W0L
00EDC:  MOV.B   W0L,1040
00EDE:  CALL    B80
....................        
....................       C2CTRL1.cancap=CAN_ENABLE_CAN_CAPTURE; 
00EE2:  BCLR.B  500.3
....................       C2CTRL1.cancks=CAN2_CANCKS; 
00EE4:  BCLR.B  501.3
....................       can2_set_baud(); 
00EE6:  CALL    B9C
....................        
....................       can2_set_buffer_size(CAN2_BUFFER_SIZE);      // sets size of DMA buffer to use 
00EEA:  MOV.B   #20,W0L
00EEC:  MOV.B   W0L,1036
00EEE:  CALL    BD8
....................       can2_config_DMA();    
00EF2:  CALL    C6A
....................           
....................       can2_set_id(&C2RXM0, CAN_MASK_ACCEPT_ALL, CAN_USE_EXTENDED_ID);  //set mask 0 
00EF6:  CLR.B   103C
00EF8:  MOV     #532,W4
00EFA:  MOV     W4,1036
00EFC:  CLR     1038
00EFE:  CLR     103A
00F00:  CALL    CA6
....................       can2_set_id(&C2RXM1, CAN_MASK_ACCEPT_ALL, CAN_USE_EXTENDED_ID);  //set mask 1 
00F04:  CLR.B   103C
00F06:  MOV     #536,W4
00F08:  MOV     W4,1036
00F0A:  CLR     1038
00F0C:  CLR     103A
00F0E:  CALL    CA6
....................       can2_set_id(&C2RXM2, CAN_MASK_ACCEPT_ALL, CAN_USE_EXTENDED_ID);  //set mask 2 
00F12:  CLR.B   103C
00F14:  MOV     #53A,W4
00F16:  MOV     W4,1036
00F18:  CLR     1038
00F1A:  CLR     103A
00F1C:  CALL    CA6
....................        
....................       // set dynamic filters 
....................       can2_set_id(&C2RXF0, 0, CAN_USE_EXTENDED_ID);  
00F20:  CLR.B   103C
00F22:  MOV     #542,W4
00F24:  MOV     W4,1036
00F26:  CLR     1038
00F28:  CLR     103A
00F2A:  CALL    CA6
....................       can2_set_id(&C2RXF1, 0, CAN_USE_EXTENDED_ID); 
00F2E:  CLR.B   103C
00F30:  MOV     #546,W4
00F32:  MOV     W4,1036
00F34:  CLR     1038
00F36:  CLR     103A
00F38:  CALL    CA6
....................       can2_set_id(&C2RXF2, 0, CAN_USE_EXTENDED_ID); 
00F3C:  CLR.B   103C
00F3E:  MOV     #54A,W4
00F40:  MOV     W4,1036
00F42:  CLR     1038
00F44:  CLR     103A
00F46:  CALL    CA6
....................       can2_set_id(&C2RXF3, 0, CAN_USE_EXTENDED_ID); 
00F4A:  CLR.B   103C
00F4C:  MOV     #54E,W4
00F4E:  MOV     W4,1036
00F50:  CLR     1038
00F52:  CLR     103A
00F54:  CALL    CA6
....................       can2_set_id(&C2RXF4, 0, CAN_USE_EXTENDED_ID); 
00F58:  CLR.B   103C
00F5A:  MOV     #552,W4
00F5C:  MOV     W4,1036
00F5E:  CLR     1038
00F60:  CLR     103A
00F62:  CALL    CA6
....................       can2_set_id(&C2RXF5, 0, CAN_USE_EXTENDED_ID); 
00F66:  CLR.B   103C
00F68:  MOV     #556,W4
00F6A:  MOV     W4,1036
00F6C:  CLR     1038
00F6E:  CLR     103A
00F70:  CALL    CA6
....................       can2_set_id(&C2RXF6, 0, CAN_USE_EXTENDED_ID); 
00F74:  CLR.B   103C
00F76:  MOV     #55A,W4
00F78:  MOV     W4,1036
00F7A:  CLR     1038
00F7C:  CLR     103A
00F7E:  CALL    CA6
....................       can2_set_id(&C2RXF7, 0, CAN_USE_EXTENDED_ID); 
00F82:  CLR.B   103C
00F84:  MOV     #55E,W4
00F86:  MOV     W4,1036
00F88:  CLR     1038
00F8A:  CLR     103A
00F8C:  CALL    CA6
....................       can2_set_id(&C2RXF8, 0, CAN_USE_EXTENDED_ID); 
00F90:  CLR.B   103C
00F92:  MOV     #562,W4
00F94:  MOV     W4,1036
00F96:  CLR     1038
00F98:  CLR     103A
00F9A:  CALL    CA6
....................       can2_set_id(&C2RXF9, 0, CAN_USE_EXTENDED_ID); 
00F9E:  CLR.B   103C
00FA0:  MOV     #566,W4
00FA2:  MOV     W4,1036
00FA4:  CLR     1038
00FA6:  CLR     103A
00FA8:  CALL    CA6
....................       can2_set_id(&C2RXF10, 0, CAN_USE_EXTENDED_ID); 
00FAC:  CLR.B   103C
00FAE:  MOV     #56A,W4
00FB0:  MOV     W4,1036
00FB2:  CLR     1038
00FB4:  CLR     103A
00FB6:  CALL    CA6
....................       can2_set_id(&C2RXF11, 0, CAN_USE_EXTENDED_ID); 
00FBA:  CLR.B   103C
00FBC:  MOV     #56E,W4
00FBE:  MOV     W4,1036
00FC0:  CLR     1038
00FC2:  CLR     103A
00FC4:  CALL    CA6
....................       can2_set_id(&C2RXF12, 0, CAN_USE_EXTENDED_ID); 
00FC8:  CLR.B   103C
00FCA:  MOV     #572,W4
00FCC:  MOV     W4,1036
00FCE:  CLR     1038
00FD0:  CLR     103A
00FD2:  CALL    CA6
....................       can2_set_id(&C2RXF13, 0, CAN_USE_EXTENDED_ID); 
00FD6:  CLR.B   103C
00FD8:  MOV     #576,W4
00FDA:  MOV     W4,1036
00FDC:  CLR     1038
00FDE:  CLR     103A
00FE0:  CALL    CA6
....................       can2_set_id(&C2RXF14, 0, CAN_USE_EXTENDED_ID); 
00FE4:  CLR.B   103C
00FE6:  MOV     #57A,W4
00FE8:  MOV     W4,1036
00FEA:  CLR     1038
00FEC:  CLR     103A
00FEE:  CALL    CA6
....................       can2_set_id(&C2RXF15, 0, CAN_USE_EXTENDED_ID); 
00FF2:  CLR.B   103C
00FF4:  MOV     #57E,W4
00FF6:  MOV     W4,1036
00FF8:  CLR     1038
00FFA:  CLR     103A
00FFC:  CALL    CA6
....................        
....................       C2FEN1=0; 
01000:  CLR     514
....................        
....................       can2_associate_filter_to_buffer(AFIFO,F0BP); 
01002:  MOV.B   #F,W0L
01004:  MOV.B   W0L,1036
01006:  CLR.B   1037
01008:  CALL    D54
....................       can2_enable_filter(FLTEN0); 
0100C:  MOV     #1,W4
0100E:  MOV     W4,1036
01010:  CALL    EAC
....................        
....................       can2_set_mode(CAN_OP_NORMAL); 
01014:  CLR.B   1040
01016:  CALL    B80
0101A:  RETURN  
....................    } 
.................... #endif 
....................  
.................... //////////////////////////////////////////////////////////////////////////////// 
.................... // 
.................... // can_set_baud() 
.................... // can2_set_baud() 
.................... // 
.................... // Configures the baud rate control registers.  All the defines here 
.................... // are defaulted in the can-PIC24.h file.  These defaults can, and 
.................... // probably should, be overwritten in the main code. 
.................... // 
.................... // Current defaults are set for 62.5 kBits if the PIC is running at 20 MHz. 
.................... // 
.................... //////////////////////////////////////////////////////////////////////////////// 
.................... void can_set_baud(void) { 
....................    C1CFG1.brp=CAN_BRG_PRESCALAR; 
*
00700:  MOV     410,W4
00702:  AND     #3C0,W4
00704:  IOR     #1,W4
00706:  MOV.B   W4L,W0L
00708:  MOV.B   W0L,410
....................    C1CFG1.sjw=CAN_BRG_SYNCH_JUMP_WIDTH; 
0070A:  MOV     410,W4
0070C:  AND     #33F,W4
0070E:  IOR     #0,W4
00710:  MOV.B   W4L,W0L
00712:  MOV.B   W0L,410
....................  
....................    C1CFG2.prseg=CAN_BRG_PROPAGATION_TIME; 
00714:  MOV     412,W4
00716:  AND     #3F8,W4
00718:  IOR     #0,W4
0071A:  MOV.B   W4L,W0L
0071C:  MOV.B   W0L,412
....................    C1CFG2.seg1ph=CAN_BRG_PHASE_SEGMENT_1; 
0071E:  MOV     412,W4
00720:  AND     #3C7,W4
00722:  IOR     #20,W4
00724:  MOV.B   W4L,W0L
00726:  MOV.B   W0L,412
....................    C1CFG2.sam=CAN_BRG_SAM; 
00728:  BCLR.B  412.6
....................    C1CFG2.seg2phts=CAN_BRG_SEG_2_PHASE_TS; 
0072A:  BSET.B  412.7
....................    C1CFG2.seg2ph=CAN_BRG_PHASE_SEGMENT_2; 
0072C:  MOV     412,W4
0072E:  LSR     W4,#8,W4
00730:  AND     #3F8,W4
00732:  IOR     #2,W4
00734:  MOV.B   W4L,W0L
00736:  MOV.B   W0L,413
....................    C1CFG2.wakfil=CAN_BRG_WAKE_FILTER; 
00738:  BCLR.B  413.6
0073A:  RETURN  
.................... } 
....................  
.................... #if getenv("SFR_VALID:C2CTRL1") 
....................    void can2_set_baud(void) { 
....................       C2CFG1.brp=CAN2_BRG_PRESCALAR; 
*
00B9C:  MOV     510,W4
00B9E:  AND     #3C0,W4
00BA0:  IOR     #1,W4
00BA2:  MOV.B   W4L,W0L
00BA4:  MOV.B   W0L,510
....................       C2CFG1.sjw=CAN2_BRG_SYNCH_JUMP_WIDTH; 
00BA6:  MOV     510,W4
00BA8:  AND     #33F,W4
00BAA:  IOR     #0,W4
00BAC:  MOV.B   W4L,W0L
00BAE:  MOV.B   W0L,510
....................     
....................       C2CFG2.prseg=CAN2_BRG_PROPAGATION_TIME; 
00BB0:  MOV     512,W4
00BB2:  AND     #3F8,W4
00BB4:  IOR     #0,W4
00BB6:  MOV.B   W4L,W0L
00BB8:  MOV.B   W0L,512
....................       C2CFG2.seg1ph=CAN2_BRG_PHASE_SEGMENT_1; 
00BBA:  MOV     512,W4
00BBC:  AND     #3C7,W4
00BBE:  IOR     #20,W4
00BC0:  MOV.B   W4L,W0L
00BC2:  MOV.B   W0L,512
....................       C2CFG2.sam=CAN2_BRG_SAM; 
00BC4:  BCLR.B  512.6
....................       C2CFG2.seg2phts=CAN2_BRG_SEG_2_PHASE_TS; 
00BC6:  BSET.B  512.7
....................       C2CFG2.seg2ph=CAN2_BRG_PHASE_SEGMENT_2; 
00BC8:  MOV     512,W4
00BCA:  LSR     W4,#8,W4
00BCC:  AND     #3F8,W4
00BCE:  IOR     #2,W4
00BD0:  MOV.B   W4L,W0L
00BD2:  MOV.B   W0L,513
....................       C2CFG2.wakfil=CAN2_BRG_WAKE_FILTER; 
00BD4:  BCLR.B  513.6
00BD6:  RETURN  
....................    } 
.................... #endif 
....................     
.................... //////////////////////////////////////////////////////////////////////////////// 
.................... // 
.................... // can_set_mode() 
.................... // can2_set_mode() 
.................... // 
.................... // This function first sets the three bits (reqop2:reqop0) to the mode given  
.................... // through the argument. 
.................... // 
.................... // The reqop bits do not immediately change the mode of operation, the 
.................... // opmode bits in the C1CTRL1 or C2CTRL1 register (opmode2:opmode0) must change  
.................... // to reflect the actual change in mode, therefore a while statement is  
.................... // used to check if the C1CTRL1 or C2CTRL1 opmode bits have changed to reflect  
.................... // the change in mode. 
.................... // 
.................... //////////////////////////////////////////////////////////////////////////////// 
.................... void can_set_mode(CAN_OP_MODE mode) { 
*
006E4:  MOV     W5,[W15++]
....................    C1CTRL1.reqop=mode; 
006E6:  MOV     #FFF8,W0
006E8:  AND.B   401
006EA:  MOV.B   1040,W0L
006EC:  AND     #7,W0
006EE:  IOR.B   401
....................    while( (C1CTRL1.opmode) != mode ); 
006F0:  MOV.B   400,W0L
006F2:  LSR     W0,#5,W4
006F4:  AND     #7,W4
006F6:  MOV.B   W4L,W0L
006F8:  CP.B    1040
006FA:  BRA     NZ,6F0
006FC:  MOV     [--W15],W5
006FE:  RETURN  
.................... } 
....................  
.................... #if getenv("SFR_VALID:C2CTRL1") 
....................    void can2_set_mode(CAN_OP_MODE mode) { 
*
00B80:  MOV     W5,[W15++]
....................       C2CTRL1.reqop=mode; 
00B82:  MOV     #FFF8,W0
00B84:  AND.B   501
00B86:  MOV.B   1040,W0L
00B88:  AND     #7,W0
00B8A:  IOR.B   501
....................       while( (C2CTRL1.opmode) != mode ); 
00B8C:  MOV.B   500,W0L
00B8E:  LSR     W0,#5,W4
00B90:  AND     #7,W4
00B92:  MOV.B   W4L,W0L
00B94:  CP.B    1040
00B96:  BRA     NZ,B8C
00B98:  MOV     [--W15],W5
00B9A:  RETURN  
....................    } 
.................... #endif 
....................     
.................... //////////////////////////////////////////////////////////////////////////////// 
.................... // 
.................... // can_set_id() 
.................... // can2_set_id() 
.................... // 
.................... // Configures the xxxxEID and xxxxSID registers to configure the defined  
.................... // acceptance filter or acceptance filter mask to the specified ID 
.................... // 
.................... //   Parameters: 
.................... //     addr - pointer to first byte of ID register, starting with xxxxEID. 
.................... //            For example, a pointer to C1RXF0 
.................... // 
.................... //     id - ID to set filter or mask to 
.................... //     ext - Set to TRUE if this filter or mask uses an extended ID,  
.................... //     FALSE if not 
.................... // 
.................... //////////////////////////////////////////////////////////////////////////////// 
.................... void can_set_id(uint16_t *addr, uint32_t id, int1 ext)  
*
0080A:  MOV     W5,[W15++]
0080C:  MOV     W6,[W15++]
.................... { 
....................    uint16_t temp; 
....................    curmode=C1CTRL1.opmode; 
0080E:  MOV.B   400,W0L
00810:  LSR     W0,#5,W4
00812:  AND     #7,W4
00814:  PUSH    1000
00816:  MOV.B   W4L,[W15-#2]
00818:  POP     1000
....................  
....................    can_set_mode(CAN_OP_CONFIG); 
0081A:  MOV.B   #4,W0L
0081C:  MOV.B   W0L,1040
0081E:  CALL    6E4
....................     
....................    C1CTRL1.win=1; 
00822:  BSET.B  400.0
....................     
....................    if (ext) {  //extended 
00824:  CP0.B   103C
00826:  BRA     Z,86E
....................       //eid 
....................       *addr=(id & 0xffff);                         //0:15 
00828:  MOV     1036,W5
0082A:  CLR     W1
0082C:  MOV     1038,W0
0082E:  MOV     W0,[W5]
....................     
....................       //sid 
....................       addr-=1; 
00830:  MOV     1036,W4
00832:  SUB     W4,#2,W0
00834:  MOV     W0,1036
....................       *addr&=0x1C; 
00836:  MOV     1036,W5
00838:  MOV     [W5],W0
0083A:  AND     W0,#1C,W0
0083C:  MOV     W0,[W5]
....................       temp=((id & 0x30000) >> 16); 
0083E:  CLR     W5
00840:  MOV     103A,W0
00842:  AND     W0,#3,W6
00844:  MOV     W6,103E
....................       temp|=((id & 0x1FFC0000) >> 13); 
00846:  CLR     W5
00848:  MOV     #1FFC,W0
0084A:  AND     103A,W0
0084C:  MOV     W0,W6
0084E:  MOV     #D,W4
00850:  MOV     W5,W0
00852:  MOV     W6,W1
00854:  INC     W4,W4
00856:  DEC     W4,W4
00858:  BRA     Z,860
0085A:  LSR     W1,W1
0085C:  RRC     W0,W0
0085E:  BRA     856
00860:  IOR     103E
....................       *addr|=temp;                                 //16:28 
00862:  MOV     1036,W5
00864:  MOV     [W5],W0
00866:  IOR     103E,W0
00868:  MOV     W0,[W5]
....................    } 
0086A:  GOTO    8A8
....................        
....................    else {   //standard 
....................       //eid 
....................       *addr=0; 
0086E:  MOV     1036,W5
00870:  CLR.B   [W5]
00872:  MOV.B   #0,W0L
00874:  MOV.B   W0L,[W5+#1]
....................  
....................       //sid 
....................       addr-=1; 
00876:  MOV     1036,W4
00878:  SUB     W4,#2,W0
0087A:  MOV     W0,1036
....................       *addr&=0x1C; 
0087C:  MOV     1036,W5
0087E:  MOV     [W5],W0
00880:  AND     W0,#1C,W0
00882:  MOV     W0,[W5]
....................       temp=((id & 0x7FF) << 5); 
00884:  MOV     #7FF,W0
00886:  AND     1038,W0
00888:  MOV     W0,W5
0088A:  CLR     W6
0088C:  MOV     #5,W4
0088E:  MOV     W5,W0
00890:  MOV     W6,W1
00892:  INC     W4,W4
00894:  DEC     W4,W4
00896:  BRA     Z,89E
00898:  SL      W0,W0
0089A:  RLC     W1,W1
0089C:  BRA     894
0089E:  MOV     W0,103E
....................       *addr|=temp;                              //0:10 
008A0:  MOV     1036,W5
008A2:  MOV     [W5],W0
008A4:  IOR     103E,W0
008A6:  MOV     W0,[W5]
....................    } 
....................    C1CTRL1.win=0; 
008A8:  BCLR.B  400.0
....................     
....................    can_set_mode(curmode); 
008AA:  MOV.B   1000,W0L
008AC:  MOV.B   W0L,1040
008AE:  CALL    6E4
008B2:  MOV     [--W15],W6
008B4:  MOV     [--W15],W5
008B6:  RETURN  
.................... } 
....................  
.................... #if getenv("SFR_VALID:C2CTRL1") 
....................    void can2_set_id(uint16_t *addr, uint32_t id, int1 ext)  
*
00CA6:  MOV     W5,[W15++]
00CA8:  MOV     W6,[W15++]
....................    { 
....................       uint16_t temp; 
....................       curmode=C2CTRL1.opmode; 
00CAA:  MOV.B   500,W0L
00CAC:  LSR     W0,#5,W4
00CAE:  AND     #7,W4
00CB0:  PUSH    1000
00CB2:  MOV.B   W4L,[W15-#2]
00CB4:  POP     1000
....................     
....................       can2_set_mode(CAN_OP_CONFIG); 
00CB6:  MOV.B   #4,W0L
00CB8:  MOV.B   W0L,1040
00CBA:  CALL    B80
....................        
....................       C2CTRL1.win=1; 
00CBE:  BSET.B  500.0
....................        
....................       if (ext) {  //extended 
00CC0:  CP0.B   103C
00CC2:  BRA     Z,D0A
....................          //eid 
....................          *addr=(id & 0xffff);                         //0:15 
00CC4:  MOV     1036,W5
00CC6:  CLR     W1
00CC8:  MOV     1038,W0
00CCA:  MOV     W0,[W5]
....................        
....................          //sid 
....................          addr-=1; 
00CCC:  MOV     1036,W4
00CCE:  SUB     W4,#2,W0
00CD0:  MOV     W0,1036
....................          *addr&=0x1C; 
00CD2:  MOV     1036,W5
00CD4:  MOV     [W5],W0
00CD6:  AND     W0,#1C,W0
00CD8:  MOV     W0,[W5]
....................          temp=((id & 0x30000) >> 16); 
00CDA:  CLR     W5
00CDC:  MOV     103A,W0
00CDE:  AND     W0,#3,W6
00CE0:  MOV     W6,103E
....................          temp|=((id & 0x1FFC0000) >> 13); 
00CE2:  CLR     W5
00CE4:  MOV     #1FFC,W0
00CE6:  AND     103A,W0
00CE8:  MOV     W0,W6
00CEA:  MOV     #D,W4
00CEC:  MOV     W5,W0
00CEE:  MOV     W6,W1
00CF0:  INC     W4,W4
00CF2:  DEC     W4,W4
00CF4:  BRA     Z,CFC
00CF6:  LSR     W1,W1
00CF8:  RRC     W0,W0
00CFA:  BRA     CF2
00CFC:  IOR     103E
....................          *addr|=temp;                                 //16:28 
00CFE:  MOV     1036,W5
00D00:  MOV     [W5],W0
00D02:  IOR     103E,W0
00D04:  MOV     W0,[W5]
....................       } 
00D06:  GOTO    D44
....................           
....................       else {   //standard 
....................          //eid 
....................          *addr=0; 
00D0A:  MOV     1036,W5
00D0C:  CLR.B   [W5]
00D0E:  MOV.B   #0,W0L
00D10:  MOV.B   W0L,[W5+#1]
....................     
....................          //sid 
....................          addr-=1; 
00D12:  MOV     1036,W4
00D14:  SUB     W4,#2,W0
00D16:  MOV     W0,1036
....................          *addr&=0x1C; 
00D18:  MOV     1036,W5
00D1A:  MOV     [W5],W0
00D1C:  AND     W0,#1C,W0
00D1E:  MOV     W0,[W5]
....................          temp=((id & 0x7FF) << 5); 
00D20:  MOV     #7FF,W0
00D22:  AND     1038,W0
00D24:  MOV     W0,W5
00D26:  CLR     W6
00D28:  MOV     #5,W4
00D2A:  MOV     W5,W0
00D2C:  MOV     W6,W1
00D2E:  INC     W4,W4
00D30:  DEC     W4,W4
00D32:  BRA     Z,D3A
00D34:  SL      W0,W0
00D36:  RLC     W1,W1
00D38:  BRA     D30
00D3A:  MOV     W0,103E
....................          *addr|=temp;                              //0:10 
00D3C:  MOV     1036,W5
00D3E:  MOV     [W5],W0
00D40:  IOR     103E,W0
00D42:  MOV     W0,[W5]
....................       } 
....................       C2CTRL1.win=0; 
00D44:  BCLR.B  500.0
....................        
....................       can2_set_mode(curmode); 
00D46:  MOV.B   1000,W0L
00D48:  MOV.B   W0L,1040
00D4A:  CALL    B80
00D4E:  MOV     [--W15],W6
00D50:  MOV     [--W15],W5
00D52:  RETURN  
....................    } 
.................... #endif 
....................  
.................... //////////////////////////////////////////////////////////////////////////////// 
.................... // 
.................... // can_set_buffer_id() 
.................... // can2_set_buffer_id() 
.................... // 
.................... // Configures the defined buffer to use the specified ID 
.................... // 
.................... // Parameters: 
.................... //       buffer - the desired buffer 
.................... //        enumerated as TRB0-TRB7 
.................... // 
.................... //       id - ID to set buffer to 
.................... //       ext - Set to TRUE is this buffer uses an extended ID, False if not 
.................... // 
.................... //////////////////////////////////////////////////////////////////////////////// 
.................... void can_set_buffer_id(BUFFER buffer, uint32_t id, int1 ext) 
.................... { 
....................    uint16_t *ptr; 
....................    uint16_t temp; 
....................     
....................    ptr=&ecan1_message_buffer[buffer][2]; 
....................  
....................    if (ext) 
....................    { 
....................       //eid 
....................       *ptr&=0x20F; 
....................       temp=((id & 0x3F) << 10); 
....................       *ptr|=temp; 
....................       ptr-=1; 
....................       temp=((id & 0x3FFC0) >> 6); 
....................       *ptr=temp; 
....................        
....................       //sid 
....................       ptr-=1; 
....................       *ptr&=0x2; 
....................       temp=(((id & 0x1FFC0000) >> 16) | ext); 
....................       *ptr|=temp; 
....................    } 
....................    else 
....................    { 
....................       //eid 
....................       *ptr&=0x20F; 
....................       ptr-=1; 
....................       *ptr=0; 
....................       
....................       //sid 
....................       ptr-=1; 
....................       *ptr&=0x2; 
....................       temp=(((id & 0x7FF) << 2) | ext); 
....................       *ptr|=temp; 
....................    } 
.................... } 
....................  
.................... #if getenv("SFR_VALID:C2CTRL1") 
....................    void can2_set_buffer_id(BUFFER buffer, uint32_t id, int1 ext) 
....................    { 
....................       uint16_t *ptr; 
....................       uint16_t temp; 
....................        
....................       ptr=&ecan2_message_buffer[buffer][2]; 
....................     
....................       if (ext) 
....................       { 
....................          //eid 
....................          *ptr&=0x20F; 
....................          temp=((id & 0x3F) << 10); 
....................          *ptr|=temp; 
....................          ptr-=1; 
....................          temp=((id & 0x3FFC0) >> 6); 
....................          *ptr=temp; 
....................           
....................          //sid 
....................          ptr-=1; 
....................          *ptr&=0x2; 
....................          temp=(((id & 0x1FFC0000) >> 16) | ext); 
....................          *ptr|=temp; 
....................       } 
....................       else 
....................       { 
....................          //eid 
....................          *ptr&=0x20F; 
....................          ptr-=1; 
....................          *ptr=0; 
....................          
....................          //sid 
....................          ptr-=1; 
....................          *ptr&=0x2; 
....................          temp=(((id & 0x7FF) << 2) | ext); 
....................          *ptr|=temp; 
....................       } 
....................    } 
.................... #endif 
....................  
.................... //////////////////////////////////////////////////////////////////////////////// 
.................... // 
.................... // can_set_buffer_size() 
.................... // can2_set_buffer_size() 
.................... // 
.................... // Configures the number of DMA buffers the ECAN module uses. 
.................... // 
.................... // Parameters: 
.................... //       size - the desired buffer size to be used. Valid sizes 4, 6, 8, 12, 16, 
.................... //              24, and 32 
.................... // 
.................... // Returns: 
.................... //       void 
.................... // 
.................... //////////////////////////////////////////////////////////////////////////////// 
.................... void can_set_buffer_size(uint8_t size) 
.................... { 
....................    if (size==4) 
*
0073C:  MOV     1036,W4
0073E:  CP.B    W4L,#4
00740:  BRA     NZ,752
....................       C1FCTRL.dmabs=0; 
00742:  MOV     406,W4
00744:  LSR     W4,#8,W4
00746:  AND     #31F,W4
00748:  IOR     #0,W4
0074A:  MOV.B   W4L,W0L
0074C:  MOV.B   W0L,407
0074E:  GOTO    7CC
....................    else if (size==6) 
00752:  MOV     1036,W4
00754:  CP.B    W4L,#6
00756:  BRA     NZ,768
....................       C1FCTRL.dmabs=1; 
00758:  MOV     406,W4
0075A:  LSR     W4,#8,W4
0075C:  AND     #31F,W4
0075E:  IOR     #20,W4
00760:  MOV.B   W4L,W0L
00762:  MOV.B   W0L,407
00764:  GOTO    7CC
....................    else if (size==8) 
00768:  MOV     1036,W4
0076A:  CP.B    W4L,#8
0076C:  BRA     NZ,77E
....................       C1FCTRL.dmabs=2; 
0076E:  MOV     406,W4
00770:  LSR     W4,#8,W4
00772:  AND     #31F,W4
00774:  IOR     #40,W4
00776:  MOV.B   W4L,W0L
00778:  MOV.B   W0L,407
0077A:  GOTO    7CC
....................    else if (size==12) 
0077E:  MOV     1036,W4
00780:  CP.B    W4L,#C
00782:  BRA     NZ,794
....................       C1FCTRL.dmabs=3; 
00784:  MOV     406,W4
00786:  LSR     W4,#8,W4
00788:  AND     #31F,W4
0078A:  IOR     #60,W4
0078C:  MOV.B   W4L,W0L
0078E:  MOV.B   W0L,407
00790:  GOTO    7CC
....................    else if (size==16) 
00794:  MOV     1036,W4
00796:  CP.B    W4L,#10
00798:  BRA     NZ,7AA
....................       C1FCTRL.dmabs=4; 
0079A:  MOV     406,W4
0079C:  LSR     W4,#8,W4
0079E:  AND     #31F,W4
007A0:  IOR     #80,W4
007A2:  MOV.B   W4L,W0L
007A4:  MOV.B   W0L,407
007A6:  GOTO    7CC
....................    else if (size==24) 
007AA:  MOV     1036,W4
007AC:  CP.B    W4L,#18
007AE:  BRA     NZ,7C0
....................       C1FCTRL.dmabs=5; 
007B0:  MOV     406,W4
007B2:  LSR     W4,#8,W4
007B4:  AND     #31F,W4
007B6:  IOR     #A0,W4
007B8:  MOV.B   W4L,W0L
007BA:  MOV.B   W0L,407
007BC:  GOTO    7CC
....................    else 
....................       C1FCTRL.dmabs=6; 
007C0:  MOV     406,W4
007C2:  LSR     W4,#8,W4
007C4:  AND     #31F,W4
007C6:  IOR     #C0,W4
007C8:  MOV.B   W4L,W0L
007CA:  MOV.B   W0L,407
007CC:  RETURN  
.................... } 
....................  
.................... #if getenv("SFR_VALID:C2CTRL1") 
....................    void can2_set_buffer_size(uint8_t size) 
....................    { 
....................       if (size==4) 
*
00BD8:  MOV     1036,W4
00BDA:  CP.B    W4L,#4
00BDC:  BRA     NZ,BEE
....................          C2FCTRL.dmabs=0; 
00BDE:  MOV     506,W4
00BE0:  LSR     W4,#8,W4
00BE2:  AND     #31F,W4
00BE4:  IOR     #0,W4
00BE6:  MOV.B   W4L,W0L
00BE8:  MOV.B   W0L,507
00BEA:  GOTO    C68
....................       else if (size==6) 
00BEE:  MOV     1036,W4
00BF0:  CP.B    W4L,#6
00BF2:  BRA     NZ,C04
....................          C2FCTRL.dmabs=1; 
00BF4:  MOV     506,W4
00BF6:  LSR     W4,#8,W4
00BF8:  AND     #31F,W4
00BFA:  IOR     #20,W4
00BFC:  MOV.B   W4L,W0L
00BFE:  MOV.B   W0L,507
00C00:  GOTO    C68
....................       else if (size==8) 
00C04:  MOV     1036,W4
00C06:  CP.B    W4L,#8
00C08:  BRA     NZ,C1A
....................          C2FCTRL.dmabs=2; 
00C0A:  MOV     506,W4
00C0C:  LSR     W4,#8,W4
00C0E:  AND     #31F,W4
00C10:  IOR     #40,W4
00C12:  MOV.B   W4L,W0L
00C14:  MOV.B   W0L,507
00C16:  GOTO    C68
....................       else if (size==12) 
00C1A:  MOV     1036,W4
00C1C:  CP.B    W4L,#C
00C1E:  BRA     NZ,C30
....................          C2FCTRL.dmabs=3; 
00C20:  MOV     506,W4
00C22:  LSR     W4,#8,W4
00C24:  AND     #31F,W4
00C26:  IOR     #60,W4
00C28:  MOV.B   W4L,W0L
00C2A:  MOV.B   W0L,507
00C2C:  GOTO    C68
....................       else if (size==16) 
00C30:  MOV     1036,W4
00C32:  CP.B    W4L,#10
00C34:  BRA     NZ,C46
....................          C2FCTRL.dmabs=4; 
00C36:  MOV     506,W4
00C38:  LSR     W4,#8,W4
00C3A:  AND     #31F,W4
00C3C:  IOR     #80,W4
00C3E:  MOV.B   W4L,W0L
00C40:  MOV.B   W0L,507
00C42:  GOTO    C68
....................       else if (size==24) 
00C46:  MOV     1036,W4
00C48:  CP.B    W4L,#18
00C4A:  BRA     NZ,C5C
....................          C2FCTRL.dmabs=5; 
00C4C:  MOV     506,W4
00C4E:  LSR     W4,#8,W4
00C50:  AND     #31F,W4
00C52:  IOR     #A0,W4
00C54:  MOV.B   W4L,W0L
00C56:  MOV.B   W0L,507
00C58:  GOTO    C68
....................       else 
....................          C2FCTRL.dmabs=6; 
00C5C:  MOV     506,W4
00C5E:  LSR     W4,#8,W4
00C60:  AND     #31F,W4
00C62:  IOR     #C0,W4
00C64:  MOV.B   W4L,W0L
00C66:  MOV.B   W0L,507
00C68:  RETURN  
....................    } 
.................... #endif 
....................  
.................... //////////////////////////////////////////////////////////////////////////////// 
.................... // 
.................... // can_enable_filter() 
.................... // can2_enable_filter() 
.................... // 
.................... // Enables a given acceptance filter 
.................... // 
.................... // Parameters: 
.................... //      filter - the filter that is to be enabled 
.................... //         enumerated as - FLTEN0-FLTEN15 
.................... // 
.................... // Returns: 
.................... //    void 
.................... // 
.................... // More information can be found on Acceptance Filters in the PIC24H Family  
.................... // Reference Manual, Section 21 
.................... // 
.................... //////////////////////////////////////////////////////////////////////////////// 
.................... void can_enable_filter(CAN_FILTER_CONTROL filter) 
*
00A10:  MOV     W5,[W15++]
.................... { 
....................    uint16_t *ptr; 
....................  
....................    curmode=C1CTRL1.opmode; 
00A12:  MOV.B   400,W0L
00A14:  LSR     W0,#5,W4
00A16:  AND     #7,W4
00A18:  PUSH    1000
00A1A:  MOV.B   W4L,[W15-#2]
00A1C:  POP     1000
....................  
....................    can_set_mode(CAN_OP_CONFIG); 
00A1E:  MOV.B   #4,W0L
00A20:  MOV.B   W0L,1040
00A22:  CALL    6E4
....................  
....................    ptr = &C1FEN1; 
00A26:  MOV     #414,W4
00A28:  MOV     W4,1038
....................  
....................    *ptr|=filter; 
00A2A:  MOV     1038,W5
00A2C:  MOV     [W5],W0
00A2E:  IOR     1036,W0
00A30:  MOV     W0,[W5]
....................  
....................    can_set_mode(curmode); 
00A32:  MOV.B   1000,W0L
00A34:  MOV.B   W0L,1040
00A36:  CALL    6E4
00A3A:  MOV     [--W15],W5
00A3C:  RETURN  
.................... } 
....................  
.................... #if getenv("SFR_VALID:C2CTRL1") 
....................    void can2_enable_filter(CAN_FILTER_CONTROL filter) 
*
00EAC:  MOV     W5,[W15++]
....................    { 
....................       uint16_t *ptr; 
....................     
....................       curmode=C2CTRL1.opmode; 
00EAE:  MOV.B   500,W0L
00EB0:  LSR     W0,#5,W4
00EB2:  AND     #7,W4
00EB4:  PUSH    1000
00EB6:  MOV.B   W4L,[W15-#2]
00EB8:  POP     1000
....................     
....................       can2_set_mode(CAN_OP_CONFIG); 
00EBA:  MOV.B   #4,W0L
00EBC:  MOV.B   W0L,1040
00EBE:  CALL    B80
....................     
....................       ptr = &C2FEN1; 
00EC2:  MOV     #514,W4
00EC4:  MOV     W4,1038
....................     
....................       *ptr|=filter; 
00EC6:  MOV     1038,W5
00EC8:  MOV     [W5],W0
00ECA:  IOR     1036,W0
00ECC:  MOV     W0,[W5]
....................     
....................       can2_set_mode(curmode); 
00ECE:  MOV.B   1000,W0L
00ED0:  MOV.B   W0L,1040
00ED2:  CALL    B80
00ED6:  MOV     [--W15],W5
00ED8:  RETURN  
....................    } 
.................... #endif 
....................  
.................... //////////////////////////////////////////////////////////////////////////////// 
.................... // 
.................... // can_disable_filter() 
.................... // can2_disable_filter() 
.................... // 
.................... // Disables a given acceptance filter 
.................... // 
.................... // Parameters: 
.................... //      filter - the filter that is to be disabled 
.................... //        enumerated as - FLTEN0-FLTEN15 
.................... // 
.................... // Returns: 
.................... //      void; 
.................... // 
.................... // More information can be found on Acceptance Filters in the PIC24H Family  
.................... // Reference Manual, Section 21 
.................... // 
.................... //////////////////////////////////////////////////////////////////////////////// 
.................... void can_disable_filter(CAN_FILTER_CONTROL filter) 
.................... { 
....................    uint16_t *ptr; 
....................  
....................    curmode=C1CTRL1.opmode; 
....................  
....................    can_set_mode(CAN_OP_CONFIG); 
....................  
....................    ptr = &C1FEN1; 
....................  
....................    *ptr&=~filter; 
....................  
....................    can_set_mode(curmode); 
.................... } 
....................  
.................... #if getenv("SFR_VALID:C2CTRL1") 
....................    void can2_disable_filter(CAN_FILTER_CONTROL filter) 
....................    { 
....................       uint16_t *ptr; 
....................     
....................       curmode=C2CTRL1.opmode; 
....................     
....................       can2_set_mode(CAN_OP_CONFIG); 
....................     
....................       ptr = &C2FEN1; 
....................     
....................       *ptr&=~filter; 
....................     
....................       can2_set_mode(curmode); 
....................    } 
.................... #endif 
....................  
.................... //////////////////////////////////////////////////////////////////////////////// 
.................... // 
.................... // can_associate_filter_to_buffer() 
.................... // can2_associate_filter_to_buffer() 
.................... // 
.................... // Associates a given buffer with a given filter register 
.................... // 
.................... // Parameters: 
.................... //      buffer - the buffer that is to be associated with the filter 
.................... //        enumerated as 
.................... //               ATRB0-ATRB7 - Programmable receive Buffers 0 - 7 
.................... //               ARB8-ARB14 - Dedicated receive buffers 8-14 
.................... //               AFIFO - FIFO buffer 
.................... // 
.................... //      filter - the filter that is to be associated with the buffer 
.................... //         enumerated as 
.................... //               F0BP-F15BP - Filters 0 - 15 
.................... // 
.................... // Returns: 
.................... //      void 
.................... //  
.................... //////////////////////////////////////////////////////////////////////////////// 
.................... void can_associate_filter_to_buffer(CAN_FILTER_ASSOCIATION_BUFFERS buffer, CAN_FILTER_ASSOCIATION filter) 
.................... { 
....................    curmode=C1CTRL1.opmode; 
*
008B8:  MOV.B   400,W0L
008BA:  LSR     W0,#5,W4
008BC:  AND     #7,W4
008BE:  PUSH    1000
008C0:  MOV.B   W4L,[W15-#2]
008C2:  POP     1000
....................  
....................    can_set_mode(CAN_OP_CONFIG); 
008C4:  MOV.B   #4,W0L
008C6:  MOV.B   W0L,1040
008C8:  CALL    6E4
....................     
....................    C1CTRL1.win=1; 
008CC:  BSET.B  400.0
....................     
....................    switch(filter) 
008CE:  MOV.B   1037,W0L
008D0:  CLR.B   1
008D2:  XOR     #0,W0
008D4:  BRA     Z,914
008D6:  XOR     #1,W0
008D8:  BRA     Z,922
008DA:  XOR     #3,W0
008DC:  BRA     Z,932
008DE:  XOR     #1,W0
008E0:  BRA     Z,940
008E2:  XOR     #7,W0
008E4:  BRA     Z,950
008E6:  XOR     #1,W0
008E8:  BRA     Z,95E
008EA:  XOR     #3,W0
008EC:  BRA     Z,96E
008EE:  XOR     #1,W0
008F0:  BRA     Z,97C
008F2:  XOR     #F,W0
008F4:  BRA     Z,98C
008F6:  XOR     #1,W0
008F8:  BRA     Z,99A
008FA:  XOR     #3,W0
008FC:  BRA     Z,9AA
008FE:  XOR     #1,W0
00900:  BRA     Z,9B8
00902:  XOR     #7,W0
00904:  BRA     Z,9C8
00906:  XOR     #1,W0
00908:  BRA     Z,9D6
0090A:  XOR     #3,W0
0090C:  BRA     Z,9E6
0090E:  XOR     #1,W0
00910:  BRA     Z,9F4
00912:  BRA     A04
....................    { 
....................       case 0: 
....................          C1BUFPNT1.f0bp=buffer; 
00914:  MOV     #FFF0,W0
00916:  AND.B   420
00918:  MOV.B   1036,W0L
0091A:  AND     #F,W0
0091C:  IOR.B   420
....................          break; 
0091E:  GOTO    A04
....................       case 1: 
....................          C1BUFPNT1.f1bp=buffer; 
00922:  MOV     #FF0F,W0
00924:  AND.B   420
00926:  MOV.B   1036,W0L
00928:  AND     #F,W0
0092A:  SL      W0,#4,W0
0092C:  IOR.B   420
....................          break; 
0092E:  GOTO    A04
....................       case 2: 
....................          C1BUFPNT1.f2bp=buffer; 
00932:  MOV     #FFF0,W0
00934:  AND.B   421
00936:  MOV.B   1036,W0L
00938:  AND     #F,W0
0093A:  IOR.B   421
....................          break; 
0093C:  GOTO    A04
....................       case 3: 
....................          C1BUFPNT1.f3bp=buffer; 
00940:  MOV     #FF0F,W0
00942:  AND.B   421
00944:  MOV.B   1036,W0L
00946:  AND     #F,W0
00948:  SL      W0,#4,W0
0094A:  IOR.B   421
....................          break; 
0094C:  GOTO    A04
....................       case 4: 
....................          C1BUFPNT2.f4bp=buffer; 
00950:  MOV     #FFF0,W0
00952:  AND.B   422
00954:  MOV.B   1036,W0L
00956:  AND     #F,W0
00958:  IOR.B   422
....................          break; 
0095A:  GOTO    A04
....................       case 5: 
....................          C1BUFPNT2.f5bp=buffer; 
0095E:  MOV     #FF0F,W0
00960:  AND.B   422
00962:  MOV.B   1036,W0L
00964:  AND     #F,W0
00966:  SL      W0,#4,W0
00968:  IOR.B   422
....................          break; 
0096A:  GOTO    A04
....................       case 6: 
....................          C1BUFPNT2.f6bp=buffer; 
0096E:  MOV     #FFF0,W0
00970:  AND.B   423
00972:  MOV.B   1036,W0L
00974:  AND     #F,W0
00976:  IOR.B   423
....................          break; 
00978:  GOTO    A04
....................       case 7: 
....................          C1BUFPNT2.f7bp=buffer; 
0097C:  MOV     #FF0F,W0
0097E:  AND.B   423
00980:  MOV.B   1036,W0L
00982:  AND     #F,W0
00984:  SL      W0,#4,W0
00986:  IOR.B   423
....................          break; 
00988:  GOTO    A04
....................       case 8: 
....................          C1BUFPNT3.f8bp=buffer; 
0098C:  MOV     #FFF0,W0
0098E:  AND.B   424
00990:  MOV.B   1036,W0L
00992:  AND     #F,W0
00994:  IOR.B   424
....................          break; 
00996:  GOTO    A04
....................       case 9: 
....................          C1BUFPNT3.f9bp=buffer; 
0099A:  MOV     #FF0F,W0
0099C:  AND.B   424
0099E:  MOV.B   1036,W0L
009A0:  AND     #F,W0
009A2:  SL      W0,#4,W0
009A4:  IOR.B   424
....................          break; 
009A6:  GOTO    A04
....................       case 10: 
....................          C1BUFPNT3.f10bp=buffer; 
009AA:  MOV     #FFF0,W0
009AC:  AND.B   425
009AE:  MOV.B   1036,W0L
009B0:  AND     #F,W0
009B2:  IOR.B   425
....................          break; 
009B4:  GOTO    A04
....................       case 11: 
....................          C1BUFPNT3.f11bp=buffer; 
009B8:  MOV     #FF0F,W0
009BA:  AND.B   425
009BC:  MOV.B   1036,W0L
009BE:  AND     #F,W0
009C0:  SL      W0,#4,W0
009C2:  IOR.B   425
....................          break; 
009C4:  GOTO    A04
....................       case 12: 
....................          C1BUFPNT4.f12bp=buffer; 
009C8:  MOV     #FFF0,W0
009CA:  AND.B   426
009CC:  MOV.B   1036,W0L
009CE:  AND     #F,W0
009D0:  IOR.B   426
....................          break; 
009D2:  GOTO    A04
....................       case 13: 
....................          C1BUFPNT4.f13bp=buffer; 
009D6:  MOV     #FF0F,W0
009D8:  AND.B   426
009DA:  MOV.B   1036,W0L
009DC:  AND     #F,W0
009DE:  SL      W0,#4,W0
009E0:  IOR.B   426
....................          break; 
009E2:  GOTO    A04
....................       case 14: 
....................          C1BUFPNT4.f14bp=buffer; 
009E6:  MOV     #FFF0,W0
009E8:  AND.B   427
009EA:  MOV.B   1036,W0L
009EC:  AND     #F,W0
009EE:  IOR.B   427
....................          break; 
009F0:  GOTO    A04
....................       case 15: 
....................          C1BUFPNT4.f15bp=buffer; 
009F4:  MOV     #FF0F,W0
009F6:  AND.B   427
009F8:  MOV.B   1036,W0L
009FA:  AND     #F,W0
009FC:  SL      W0,#4,W0
009FE:  IOR.B   427
....................          break; 
00A00:  GOTO    A04
....................    } 
....................    C1CTRL1.win=0; 
00A04:  BCLR.B  400.0
....................     
....................    can_set_mode(curmode); 
00A06:  MOV.B   1000,W0L
00A08:  MOV.B   W0L,1040
00A0A:  CALL    6E4
00A0E:  RETURN  
.................... } 
....................  
.................... #if getenv("SFR_VALID:C2CTRL1") 
....................    void can2_associate_filter_to_buffer(CAN_FILTER_ASSOCIATION_BUFFERS buffer, CAN_FILTER_ASSOCIATION filter) 
....................    { 
....................       curmode=C2CTRL1.opmode; 
*
00D54:  MOV.B   500,W0L
00D56:  LSR     W0,#5,W4
00D58:  AND     #7,W4
00D5A:  PUSH    1000
00D5C:  MOV.B   W4L,[W15-#2]
00D5E:  POP     1000
....................     
....................       can2_set_mode(CAN_OP_CONFIG); 
00D60:  MOV.B   #4,W0L
00D62:  MOV.B   W0L,1040
00D64:  CALL    B80
....................        
....................       C2CTRL1.win=1; 
00D68:  BSET.B  500.0
....................        
....................       switch(filter) 
00D6A:  MOV.B   1037,W0L
00D6C:  CLR.B   1
00D6E:  XOR     #0,W0
00D70:  BRA     Z,DB0
00D72:  XOR     #1,W0
00D74:  BRA     Z,DBE
00D76:  XOR     #3,W0
00D78:  BRA     Z,DCE
00D7A:  XOR     #1,W0
00D7C:  BRA     Z,DDC
00D7E:  XOR     #7,W0
00D80:  BRA     Z,DEC
00D82:  XOR     #1,W0
00D84:  BRA     Z,DFA
00D86:  XOR     #3,W0
00D88:  BRA     Z,E0A
00D8A:  XOR     #1,W0
00D8C:  BRA     Z,E18
00D8E:  XOR     #F,W0
00D90:  BRA     Z,E28
00D92:  XOR     #1,W0
00D94:  BRA     Z,E36
00D96:  XOR     #3,W0
00D98:  BRA     Z,E46
00D9A:  XOR     #1,W0
00D9C:  BRA     Z,E54
00D9E:  XOR     #7,W0
00DA0:  BRA     Z,E64
00DA2:  XOR     #1,W0
00DA4:  BRA     Z,E72
00DA6:  XOR     #3,W0
00DA8:  BRA     Z,E82
00DAA:  XOR     #1,W0
00DAC:  BRA     Z,E90
00DAE:  BRA     EA0
....................       { 
....................          case 0: 
....................             C2BUFPNT1.f0bp=buffer; 
00DB0:  MOV     #FFF0,W0
00DB2:  AND.B   520
00DB4:  MOV.B   1036,W0L
00DB6:  AND     #F,W0
00DB8:  IOR.B   520
....................             break; 
00DBA:  GOTO    EA0
....................          case 1: 
....................             C2BUFPNT1.f1bp=buffer; 
00DBE:  MOV     #FF0F,W0
00DC0:  AND.B   520
00DC2:  MOV.B   1036,W0L
00DC4:  AND     #F,W0
00DC6:  SL      W0,#4,W0
00DC8:  IOR.B   520
....................             break; 
00DCA:  GOTO    EA0
....................          case 2: 
....................             C2BUFPNT1.f2bp=buffer; 
00DCE:  MOV     #FFF0,W0
00DD0:  AND.B   521
00DD2:  MOV.B   1036,W0L
00DD4:  AND     #F,W0
00DD6:  IOR.B   521
....................             break; 
00DD8:  GOTO    EA0
....................          case 3: 
....................             C2BUFPNT1.f3bp=buffer; 
00DDC:  MOV     #FF0F,W0
00DDE:  AND.B   521
00DE0:  MOV.B   1036,W0L
00DE2:  AND     #F,W0
00DE4:  SL      W0,#4,W0
00DE6:  IOR.B   521
....................             break; 
00DE8:  GOTO    EA0
....................          case 4: 
....................             C2BUFPNT2.f4bp=buffer; 
00DEC:  MOV     #FFF0,W0
00DEE:  AND.B   522
00DF0:  MOV.B   1036,W0L
00DF2:  AND     #F,W0
00DF4:  IOR.B   522
....................             break; 
00DF6:  GOTO    EA0
....................          case 5: 
....................             C2BUFPNT2.f5bp=buffer; 
00DFA:  MOV     #FF0F,W0
00DFC:  AND.B   522
00DFE:  MOV.B   1036,W0L
00E00:  AND     #F,W0
00E02:  SL      W0,#4,W0
00E04:  IOR.B   522
....................             break; 
00E06:  GOTO    EA0
....................          case 6: 
....................             C2BUFPNT2.f6bp=buffer; 
00E0A:  MOV     #FFF0,W0
00E0C:  AND.B   523
00E0E:  MOV.B   1036,W0L
00E10:  AND     #F,W0
00E12:  IOR.B   523
....................             break; 
00E14:  GOTO    EA0
....................          case 7: 
....................             C2BUFPNT2.f7bp=buffer; 
00E18:  MOV     #FF0F,W0
00E1A:  AND.B   523
00E1C:  MOV.B   1036,W0L
00E1E:  AND     #F,W0
00E20:  SL      W0,#4,W0
00E22:  IOR.B   523
....................             break; 
00E24:  GOTO    EA0
....................          case 8: 
....................             C2BUFPNT3.f8bp=buffer; 
00E28:  MOV     #FFF0,W0
00E2A:  AND.B   524
00E2C:  MOV.B   1036,W0L
00E2E:  AND     #F,W0
00E30:  IOR.B   524
....................             break; 
00E32:  GOTO    EA0
....................          case 9: 
....................             C2BUFPNT3.f9bp=buffer; 
00E36:  MOV     #FF0F,W0
00E38:  AND.B   524
00E3A:  MOV.B   1036,W0L
00E3C:  AND     #F,W0
00E3E:  SL      W0,#4,W0
00E40:  IOR.B   524
....................             break; 
00E42:  GOTO    EA0
....................          case 10: 
....................             C2BUFPNT3.f10bp=buffer; 
00E46:  MOV     #FFF0,W0
00E48:  AND.B   525
00E4A:  MOV.B   1036,W0L
00E4C:  AND     #F,W0
00E4E:  IOR.B   525
....................             break; 
00E50:  GOTO    EA0
....................          case 11: 
....................             C2BUFPNT3.f11bp=buffer; 
00E54:  MOV     #FF0F,W0
00E56:  AND.B   525
00E58:  MOV.B   1036,W0L
00E5A:  AND     #F,W0
00E5C:  SL      W0,#4,W0
00E5E:  IOR.B   525
....................             break; 
00E60:  GOTO    EA0
....................          case 12: 
....................             C2BUFPNT4.f12bp=buffer; 
00E64:  MOV     #FFF0,W0
00E66:  AND.B   526
00E68:  MOV.B   1036,W0L
00E6A:  AND     #F,W0
00E6C:  IOR.B   526
....................             break; 
00E6E:  GOTO    EA0
....................          case 13: 
....................             C2BUFPNT4.f13bp=buffer; 
00E72:  MOV     #FF0F,W0
00E74:  AND.B   526
00E76:  MOV.B   1036,W0L
00E78:  AND     #F,W0
00E7A:  SL      W0,#4,W0
00E7C:  IOR.B   526
....................             break; 
00E7E:  GOTO    EA0
....................          case 14: 
....................             C2BUFPNT4.f14bp=buffer; 
00E82:  MOV     #FFF0,W0
00E84:  AND.B   527
00E86:  MOV.B   1036,W0L
00E88:  AND     #F,W0
00E8A:  IOR.B   527
....................             break; 
00E8C:  GOTO    EA0
....................          case 15: 
....................             C2BUFPNT4.f15bp=buffer; 
00E90:  MOV     #FF0F,W0
00E92:  AND.B   527
00E94:  MOV.B   1036,W0L
00E96:  AND     #F,W0
00E98:  SL      W0,#4,W0
00E9A:  IOR.B   527
....................             break; 
00E9C:  GOTO    EA0
....................       } 
....................       C2CTRL1.win=0; 
00EA0:  BCLR.B  500.0
....................        
....................       can2_set_mode(curmode); 
00EA2:  MOV.B   1000,W0L
00EA4:  MOV.B   W0L,1040
00EA6:  CALL    B80
00EAA:  RETURN  
....................    } 
.................... #endif 
....................  
.................... //////////////////////////////////////////////////////////////////////////////// 
.................... // 
.................... // can_associate_filter_to_mask() 
.................... // can2_associate_filter_to_mask() 
.................... // 
.................... //   Associates a given filter to a given mask 
.................... // 
.................... //   Parameters: 
.................... //      mask - the mask that is to be associated with the filter 
.................... //         enumerated as 
.................... //            ACCEPTANCE_MASK_0 
.................... //            ACCEPTANCE_MASK_1 
.................... //            ACCEPTANCE_MASK_2 
.................... //            NO_MASK 
.................... // 
.................... //      filter - the filter that is to be associated with the mask 
.................... //         enumerated as 
.................... //               F0BP-F15BP - Filters 0 - 15 
.................... // 
.................... //   Returns: 
.................... //      void 
.................... // 
.................... // More information can be found on Acceptance Filters in the PIC24H Family  
.................... // Reference Manual, Section 21 
.................... // 
.................... //////////////////////////////////////////////////////////////////////////////// 
.................... void can_associate_filter_to_mask(CAN_MASK_FILTER_ASSOCIATION mask, CAN_FILTER_ASSOCIATION filter) 
.................... { 
....................    curmode = C1CTRL1.opmode; 
....................  
....................    can_set_mode(CAN_OP_CONFIG); 
....................     
....................    switch(filter) 
....................    { 
....................       case 0: 
....................          C1FMSKSEL1.f0msk=mask; 
....................          break; 
....................       case 1: 
....................          C1FMSKSEL1.f1msk=mask; 
....................          break; 
....................       case 2: 
....................          C1FMSKSEL1.f2msk=mask; 
....................          break; 
....................       case 3: 
....................          C1FMSKSEL1.f3msk=mask; 
....................          break; 
....................       case 4: 
....................          C1FMSKSEL1.f4msk=mask; 
....................          break; 
....................       case 5: 
....................          C1FMSKSEL1.f5msk=mask; 
....................          break; 
....................       case 6: 
....................          C1FMSKSEL1.f6msk=mask; 
....................          break; 
....................       case 7: 
....................          C1FMSKSEL1.f7msk=mask; 
....................          break; 
....................       case 8: 
....................          C1FMSKSEL2.f8msk=mask; 
....................          break; 
....................       case 9: 
....................          C1FMSKSEL2.f9msk=mask; 
....................          break; 
....................       case 10: 
....................          C1FMSKSEL2.f10msk=mask; 
....................          break; 
....................       case 11: 
....................          C1FMSKSEL2.f11msk=mask; 
....................          break; 
....................       case 12: 
....................          C1FMSKSEL2.f12msk=mask; 
....................          break; 
....................       case 13: 
....................          C1FMSKSEL2.f13msk=mask; 
....................          break; 
....................       case 14: 
....................          C1FMSKSEL2.f14msk=mask; 
....................          break; 
....................       case 15: 
....................          C1FMSKSEL2.f15msk=mask; 
....................          break; 
....................    } 
....................    can_set_mode(curmode); 
.................... } 
....................  
.................... #if getenv("SFR_VALID:C2CTRL1") 
....................    void can2_associate_filter_to_mask(CAN_MASK_FILTER_ASSOCIATION mask, CAN_FILTER_ASSOCIATION filter) 
....................    { 
....................       curmode = C2CTRL1.opmode; 
....................     
....................       can2_set_mode(CAN_OP_CONFIG); 
....................        
....................       switch(filter) 
....................       { 
....................          case 0: 
....................             C2FMSKSEL1.f0msk=mask; 
....................             break; 
....................          case 1: 
....................             C2FMSKSEL1.f1msk=mask; 
....................             break; 
....................          case 2: 
....................             C2FMSKSEL1.f2msk=mask; 
....................             break; 
....................          case 3: 
....................             C2FMSKSEL1.f3msk=mask; 
....................             break; 
....................          case 4: 
....................             C2FMSKSEL1.f4msk=mask; 
....................             break; 
....................          case 5: 
....................             C2FMSKSEL1.f5msk=mask; 
....................             break; 
....................          case 6: 
....................             C2FMSKSEL1.f6msk=mask; 
....................             break; 
....................          case 7: 
....................             C2FMSKSEL1.f7msk=mask; 
....................             break; 
....................          case 8: 
....................             C2FMSKSEL2.f8msk=mask; 
....................             break; 
....................          case 9: 
....................             C2FMSKSEL2.f9msk=mask; 
....................             break; 
....................          case 10: 
....................             C2FMSKSEL2.f10msk=mask; 
....................             break; 
....................          case 11: 
....................             C2FMSKSEL2.f11msk=mask; 
....................             break; 
....................          case 12: 
....................             C2FMSKSEL2.f12msk=mask; 
....................             break; 
....................          case 13: 
....................             C2FMSKSEL2.f13msk=mask; 
....................             break; 
....................          case 14: 
....................             C2FMSKSEL2.f14msk=mask; 
....................             break; 
....................          case 15: 
....................             C2FMSKSEL2.f15msk=mask; 
....................             break; 
....................       } 
....................       can2_set_mode(curmode); 
....................    } 
.................... #endif 
....................  
.................... //////////////////////////////////////////////////////////////////////////////// 
.................... // 
.................... // can_putd() 
.................... // can2_putd() 
.................... // 
.................... // Puts data on a transmit buffer, at which time the CAN peripheral will 
.................... // send when the CAN bus becomes available. 
.................... // 
.................... //    Parameters: 
.................... //       id - ID to transmit data as 
.................... //       data - pointer to data to send 
.................... //       len - length of data to send 
.................... //       priority - priority of message.  The higher the number, the 
.................... //                  sooner the CAN peripheral will send the message. 
.................... //                  Numbers 0 through 3 are valid. 
.................... //       ext - TRUE to use an extended ID, FALSE if not 
.................... //       rtr - TRUE to set the RTR (request) bit in the ID, false if NOT 
.................... // 
.................... //    Returns: 
.................... //       If successful, it will return TRUE 
.................... //       If unsuccessful, will return FALSE 
.................... // 
.................... //////////////////////////////////////////////////////////////////////////////// 
.................... int1 can_putd(uint32_t id, uint8_t *data, uint8_t len, uint8_t priority, int1 ext, int1 rtr)  
*
013FA:  MOV     W5,[W15++]
013FC:  MOV     W6,[W15++]
013FE:  MOV     W7,[W15++]
01400:  MOV     W8,[W15++]
.................... { 
....................    uint16_t *ptr; 
....................    uint16_t i; 
....................    uint16_t port; 
....................    uint16_t temp; 
....................        
....................     // find empty transmitter 
....................    if (C1TR01CON.txenm && !C1TR01CON.txreqm && !C1TR01CON.rtrenm) 
01402:  BTSS.B  430.7
01404:  BRA     1414
01406:  BTSC.B  430.3
01408:  BRA     1414
0140A:  BTSC.B  430.2
0140C:  BRA     1414
....................       port=0; 
0140E:  CLR     1044
01410:  GOTO    14A4
....................    else if (C1TR01CON.txenn && !C1TR01CON.txreqn && !C1TR01CON.rtrenn) 
01414:  BTSS.B  431.7
01416:  BRA     1428
01418:  BTSC.B  431.3
0141A:  BRA     1428
0141C:  BTSC.B  431.2
0141E:  BRA     1428
....................       port=1; 
01420:  MOV     #1,W4
01422:  MOV     W4,1044
01424:  GOTO    14A4
....................    else if (C1TR23CON.txenm && !C1TR23CON.txreqm && !C1TR23CON.rtrenm) 
01428:  BTSS.B  432.7
0142A:  BRA     143C
0142C:  BTSC.B  432.3
0142E:  BRA     143C
01430:  BTSC.B  432.2
01432:  BRA     143C
....................       port=2; 
01434:  MOV     #2,W4
01436:  MOV     W4,1044
01438:  GOTO    14A4
....................    else if (C1TR23CON.txenn && !C1TR23CON.txreqn && !C1TR23CON.rtrenn) 
0143C:  BTSS.B  433.7
0143E:  BRA     1450
01440:  BTSC.B  433.3
01442:  BRA     1450
01444:  BTSC.B  433.2
01446:  BRA     1450
....................       port=3; 
01448:  MOV     #3,W4
0144A:  MOV     W4,1044
0144C:  GOTO    14A4
....................    else if (C1TR45CON.txenm && !C1TR45CON.txreqm && !C1TR45CON.rtrenm) 
01450:  BTSS.B  434.7
01452:  BRA     1464
01454:  BTSC.B  434.3
01456:  BRA     1464
01458:  BTSC.B  434.2
0145A:  BRA     1464
....................       port=4; 
0145C:  MOV     #4,W4
0145E:  MOV     W4,1044
01460:  GOTO    14A4
....................    else if (C1TR45CON.txenn && !C1TR45CON.txreqn && !C1TR45CON.rtrenn) 
01464:  BTSS.B  435.7
01466:  BRA     1478
01468:  BTSC.B  435.3
0146A:  BRA     1478
0146C:  BTSC.B  435.2
0146E:  BRA     1478
....................       port=5; 
01470:  MOV     #5,W4
01472:  MOV     W4,1044
01474:  GOTO    14A4
....................    else if (C1TR67CON.txenm && !C1TR67CON.txreqm && !C1TR67CON.rtrenm) 
01478:  BTSS.B  436.7
0147A:  BRA     148C
0147C:  BTSC.B  436.3
0147E:  BRA     148C
01480:  BTSC.B  436.2
01482:  BRA     148C
....................       port=6; 
01484:  MOV     #6,W4
01486:  MOV     W4,1044
01488:  GOTO    14A4
....................    else if (C1TR67CON.txenn && !C1TR67CON.txreqn && !C1TR67CON.rtrenn) 
0148C:  BTSS.B  437.7
0148E:  BRA     14A0
01490:  BTSC.B  437.3
01492:  BRA     14A0
01494:  BTSC.B  437.2
01496:  BRA     14A0
....................       port=7; 
01498:  MOV     #7,W4
0149A:  MOV     W4,1044
0149C:  GOTO    14A4
....................    else { 
....................       #if CAN_DO_DEBUG 
....................          can_debug("\r\nCAN_PUTD() FAIL: NO OPEN TX BUFFERS\r\n"); 
....................       #endif 
....................       return(0); 
014A0:  CLR.B   0
014A2:  BRA     16A8
....................    } 
....................     
....................    // load data into correct buffer 
....................    if(ext) 
014A4:  CP0.B   103E
014A6:  BRA     Z,153E
....................    { 
....................       temp=(((id & 0x1FFC0000) >> 16) | (((uint16_t)rtr << 1) | (uint16_t)ext)) & 0x1FFF; 
014A8:  CLR     W5
014AA:  MOV     #1FFC,W0
014AC:  AND     1038,W0
014AE:  MOV     W0,W6
014B0:  MOV     W6,W5
014B2:  MOV     #0,W6
014B4:  MOV.B   103F,W0L
014B6:  MOV.B   W0L,W7L
014B8:  CLR.B   F
014BA:  SL      W7,#1,W7
014BC:  MOV.B   103E,W0L
014BE:  CLR.B   1
014C0:  IOR      W7,  W0,W0
014C2:  IOR      W5,  W0,W5
014C4:  MOV     #1FFF,W0
014C6:  AND     W0,W5,W0
014C8:  MOV     W0,1046
....................       ecan1_message_buffer[port][0]=temp; 
014CA:  MOV     1044,W5
014CC:  SL      W5,#4,W5
014CE:  MOV     #D000,W4
014D0:  ADD     W5,W4,W6
014D2:  MOV     1046,W4
014D4:  MOV     W4,[W6+#0]
....................       temp=((id & 0x3FFC0) >> 6) & 0x0FFF; 
014D6:  MOV     #FFC0,W0
014D8:  AND     1036,W0
014DA:  MOV     W0,W5
014DC:  MOV     1038,W0
014DE:  AND     W0,#3,W6
014E0:  MOV     #6,W4
014E2:  INC     W4,W4
014E4:  DEC     W4,W4
014E6:  BRA     Z,14EE
014E8:  LSR     W6,W6
014EA:  RRC     W5,W5
014EC:  BRA     14E4
014EE:  MOV     #FFF,W0
014F0:  AND     W0,W5,W0
014F2:  MOV     W0,1046
....................       ecan1_message_buffer[port][1]=temp; 
014F4:  MOV     1044,W5
014F6:  SL      W5,#4,W5
014F8:  ADD     W5,#2,W0
014FA:  MOV     #D000,W4
014FC:  ADD     W0,W4,W5
014FE:  MOV     1046,W4
01500:  MOV     W4,[W5+#0]
....................       temp=(((id & 0x3F) << 10) | (((uint16_t)rtr << 9) | (uint16_t)len)) & 0xFF1F; 
01502:  MOV     1036,W5
01504:  AND     #3F,W5
01506:  CLR     W6
01508:  MOV     #A,W4
0150A:  INC     W4,W4
0150C:  DEC     W4,W4
0150E:  BRA     Z,1516
01510:  SL      W5,W5
01512:  RLC     W6,W6
01514:  BRA     150C
01516:  MOV.B   103F,W0L
01518:  MOV.B   W0L,W7L
0151A:  CLR.B   F
0151C:  SL      W7,#9,W7
0151E:  MOV.B   103C,W0L
01520:  CLR.B   1
01522:  IOR      W7,  W0,W0
01524:  IOR      W5,  W0,W5
01526:  MOV     #FF1F,W0
01528:  AND     W0,W5,W0
0152A:  MOV     W0,1046
....................       ecan1_message_buffer[port][2]=temp; 
0152C:  MOV     1044,W5
0152E:  SL      W5,#4,W5
01530:  ADD     W5,#4,W0
01532:  MOV     #D000,W4
01534:  ADD     W0,W4,W5
01536:  MOV     1046,W4
01538:  MOV     W4,[W5+#0]
....................    } 
0153A:  GOTO    15A8
....................    else 
....................    {   
....................       temp=(((id & 0x7FF) << 2) | (((uint16_t)rtr << 1) | (uint16_t)ext)) & 0x1FFF; 
0153E:  MOV     #7FF,W0
01540:  AND     1036,W0
01542:  MOV     W0,W5
01544:  CLR     W6
01546:  MOV     #2,W4
01548:  INC     W4,W4
0154A:  DEC     W4,W4
0154C:  BRA     Z,1554
0154E:  SL      W5,W5
01550:  RLC     W6,W6
01552:  BRA     154A
01554:  MOV.B   103F,W0L
01556:  MOV.B   W0L,W7L
01558:  CLR.B   F
0155A:  SL      W7,#1,W7
0155C:  MOV.B   103E,W0L
0155E:  CLR.B   1
01560:  IOR      W7,  W0,W0
01562:  IOR      W5,  W0,W5
01564:  MOV     #1FFF,W0
01566:  AND     W0,W5,W0
01568:  MOV     W0,1046
....................       ecan1_message_buffer[port][0]=temp; 
0156A:  MOV     1044,W5
0156C:  SL      W5,#4,W5
0156E:  MOV     #D000,W4
01570:  ADD     W5,W4,W6
01572:  MOV     1046,W4
01574:  MOV     W4,[W6+#0]
....................       ecan1_message_buffer[port][1]=0x0000; 
01576:  MOV     1044,W5
01578:  SL      W5,#4,W5
0157A:  ADD     W5,#2,W0
0157C:  MOV     #D000,W4
0157E:  ADD     W0,W4,W5
01580:  CLR.B   [W5]
01582:  MOV.B   #0,W0L
01584:  MOV.B   W0L,[W5+#1]
....................       temp=(((uint16_t)rtr << 9) | (uint16_t)len) & 0xFF1F; 
01586:  MOV.B   103F,W0L
01588:  MOV.B   W0L,W5L
0158A:  CLR.B   B
0158C:  SL      W5,#9,W5
0158E:  MOV.B   103C,W0L
01590:  CLR.B   1
01592:  IOR      W5,  W0,W5
01594:  MOV     #FF1F,W0
01596:  AND     W0,W5,W0
01598:  MOV     W0,1046
....................       ecan1_message_buffer[port][2]=temp; 
0159A:  MOV     1044,W5
0159C:  SL      W5,#4,W5
0159E:  ADD     W5,#4,W0
015A0:  MOV     #D000,W4
015A2:  ADD     W0,W4,W5
015A4:  MOV     1046,W4
015A6:  MOV     W4,[W5+#0]
....................    } 
....................     
....................    ptr=&ecan1_message_buffer[port][3]; 
015A8:  MOV     1044,W5
015AA:  SL      W5,#4,W5
015AC:  ADD     W5,#6,W0
015AE:  MOV     #D000,W4
015B0:  ADD     W0,W4,W0
015B2:  MOV     W0,1040
....................    for(i=0;i<len;i+=2) 
015B4:  CLR     1042
015B6:  MOV.B   103C,W0L
015B8:  CLR.B   1
015BA:  MOV     1042,W4
015BC:  CP      W4,W0
015BE:  BRA     C,1600
....................    { 
....................       if (i+1==len) 
015C0:  MOV     1042,W4
015C2:  ADD     W4,#1,W5
015C4:  MOV.B   103C,W0L
015C6:  CLR.B   1
015C8:  CP      W0,W5
015CA:  BRA     NZ,15DE
....................          *ptr=make16(0,data[i]); 
015CC:  MOV     1040,W5
015CE:  MOV     1042,W0
015D0:  ADD     103A,W0
015D2:  MOV.B   [W0],W6L
015D4:  MOV.B   W6L,[W5]
015D6:  MOV.B   #0,W0L
015D8:  MOV.B   W0L,[W5+#1]
015DA:  GOTO    15F4
....................       else 
....................          *ptr=make16(data[i+1],data[i]); 
015DE:  MOV     1040,W5
015E0:  MOV     1042,W4
015E2:  ADD     W4,#1,W6
015E4:  MOV     W6,W0
015E6:  ADD     103A,W0
015E8:  MOV.B   [W0],W7L
015EA:  MOV     1042,W0
015EC:  ADD     103A,W0
015EE:  MOV.B   [W0],W8L
015F0:  MOV.B   W8L,[W5]
015F2:  MOV.B   W7L,[W5+#1]
....................       ptr++; 
015F4:  INC2    1040
015F6:  MOV     1042,W4
015F8:  ADD     W4,#2,W0
015FA:  MOV     W0,1042
015FC:  GOTO    15B6
....................    } 
....................     
....................    switch(port) 
01600:  MOV     1044,W0
01602:  XOR     #0,W0
01604:  BRA     Z,1624
01606:  XOR     #1,W0
01608:  BRA     Z,1634
0160A:  XOR     #3,W0
0160C:  BRA     Z,1644
0160E:  XOR     #1,W0
01610:  BRA     Z,1654
01612:  XOR     #7,W0
01614:  BRA     Z,1664
01616:  XOR     #1,W0
01618:  BRA     Z,1674
0161A:  XOR     #3,W0
0161C:  BRA     Z,1684
0161E:  XOR     #1,W0
01620:  BRA     Z,1694
01622:  BRA     16A4
....................    { 
....................       case  0: 
....................          C1TR01CON.txmpri=priority;          //set priority DMA buffer 0 
01624:  MOV     #FFFC,W0
01626:  AND.B   430
01628:  MOV.B   103D,W0L
0162A:  AND     #3,W0
0162C:  IOR.B   430
....................          C1TR01CON.txreqm=1;                 //enable transmission buffer 0 
0162E:  BSET.B  430.3
....................          break; 
01630:  GOTO    16A4
....................       case 1: 
....................          C1TR01CON.txnpri=priority;          //set priority DMA buffer 1 
01634:  MOV     #FFFC,W0
01636:  AND.B   431
01638:  MOV.B   103D,W0L
0163A:  AND     #3,W0
0163C:  IOR.B   431
....................          C1TR01CON.txreqn=1;                 //enable transmission buffer 1 
0163E:  BSET.B  431.3
....................          break; 
01640:  GOTO    16A4
....................       case 2: 
....................          C1TR23CON.txmpri=priority;          //set priority DMA buffer 2 
01644:  MOV     #FFFC,W0
01646:  AND.B   432
01648:  MOV.B   103D,W0L
0164A:  AND     #3,W0
0164C:  IOR.B   432
....................          C1TR23CON.txreqm=1;                 //enable transmission buffer 2 
0164E:  BSET.B  432.3
....................          break; 
01650:  GOTO    16A4
....................       case 3: 
....................          C1TR23CON.txnpri=priority;          //set priority DMA buffer 3 
01654:  MOV     #FFFC,W0
01656:  AND.B   433
01658:  MOV.B   103D,W0L
0165A:  AND     #3,W0
0165C:  IOR.B   433
....................          C1TR23CON.txreqn=1;                 //enable transmission buffer 3 
0165E:  BSET.B  433.3
....................          break; 
01660:  GOTO    16A4
....................       case 4: 
....................          C1TR45CON.txmpri=priority;          //set priority DMA buffer 4 
01664:  MOV     #FFFC,W0
01666:  AND.B   434
01668:  MOV.B   103D,W0L
0166A:  AND     #3,W0
0166C:  IOR.B   434
....................          C1TR45CON.txreqm=1;                 //enable transmission buffer 4 
0166E:  BSET.B  434.3
....................          break; 
01670:  GOTO    16A4
....................       case 5: 
....................          C1TR45CON.txnpri=priority;          //set priority DMA buffer 5 
01674:  MOV     #FFFC,W0
01676:  AND.B   435
01678:  MOV.B   103D,W0L
0167A:  AND     #3,W0
0167C:  IOR.B   435
....................          C1TR45CON.txreqn=1;                 //enable transmission buffer 5 
0167E:  BSET.B  435.3
....................          break; 
01680:  GOTO    16A4
....................       case 6: 
....................          C1TR67CON.txmpri=priority;          //set priority DMA buffer 6 
01684:  MOV     #FFFC,W0
01686:  AND.B   436
01688:  MOV.B   103D,W0L
0168A:  AND     #3,W0
0168C:  IOR.B   436
....................          C1TR67CON.txreqm=1;                 //enable transmission buffer 6 
0168E:  BSET.B  436.3
....................          break; 
01690:  GOTO    16A4
....................       case 7: 
....................          C1TR67CON.txnpri=priority;          //set priority DMA buffer 7 
01694:  MOV     #FFFC,W0
01696:  AND.B   437
01698:  MOV.B   103D,W0L
0169A:  AND     #3,W0
0169C:  IOR.B   437
....................          C1TR67CON.txreqn=1;                 //enable transmission buffer 7 
0169E:  BSET.B  437.3
....................          break; 
016A0:  GOTO    16A4
....................    } 
....................         
....................    #if CAN_DO_DEBUG 
....................             can_debug("\r\nCAN_PUTD(): BUFF=%U ID=%LX LEN=%U PRI=%U EXT=%U RTR=%U\r\n", port, id, len, priority, ext, rtr); 
....................             if ((len)&&(!rtr)) { 
....................                can_debug("  DATA = "); 
....................                for (i=0;i<len;i++) { 
....................                   can_debug("%X ",*data); 
....................                   data++; 
....................                } 
....................                can_debug("\r\n"); 
....................             } 
....................    #endif  
....................  
....................    return(1); 
016A4:  MOV.B   #1,W0L
016A6:  MOV.B   W0L,0
016A8:  MOV     [--W15],W8
016AA:  MOV     [--W15],W7
016AC:  MOV     [--W15],W6
016AE:  MOV     [--W15],W5
016B0:  RETURN  
.................... } 
....................  
.................... #if getenv("SFR_VALID:C2CTRL1") 
....................    int1 can2_putd(uint32_t id, uint8_t *data, uint8_t len, uint8_t priority, int1 ext, int1 rtr) 
....................    { 
....................       uint16_t *ptr; 
....................       uint16_t i; 
....................       uint16_t port; 
....................       uint16_t temp; 
....................           
....................        // find empty transmitter 
....................       if (C2TR01CON.txenm && !C2TR01CON.txreqm && !C2TR01CON.rtrenm) 
....................          port=0; 
....................       else if (C2TR01CON.txenn && !C2TR01CON.txreqn && !C2TR01CON.rtrenn) 
....................          port=1; 
....................       else if (C2TR23CON.txenm && !C2TR23CON.txreqm && !C2TR23CON.rtrenm) 
....................          port=2; 
....................       else if (C2TR23CON.txenn && !C2TR23CON.txreqn && !C2TR23CON.rtrenn) 
....................          port=3; 
....................       else if (C2TR45CON.txenm && !C2TR45CON.txreqm && !C2TR45CON.rtrenm) 
....................          port=4; 
....................       else if (C2TR45CON.txenn && !C2TR45CON.txreqn && !C2TR45CON.rtrenn) 
....................          port=5; 
....................       else if (C2TR67CON.txenm && !C2TR67CON.txreqm && !C2TR67CON.rtrenm) 
....................          port=6; 
....................       else if (C2TR67CON.txenn && !C2TR67CON.txreqn && !C2TR67CON.rtrenn) 
....................          port=7; 
....................       else { 
....................          #if CAN_DO_DEBUG 
....................             can_debug("\r\nCAN2_PUTD() FAIL: NO OPEN TX BUFFERS\r\n"); 
....................          #endif 
....................          return(0); 
....................       } 
....................        
....................       // load data into correct buffer 
....................       if(ext) 
....................       { 
....................          temp=(((id & 0x1FFC0000) >> 16) | (((uint16_t)rtr << 1) | (uint16_t)ext)) & 0x1FFF; 
....................          ecan2_message_buffer[port][0]=temp; 
....................          temp=((id & 0x3FFC0) >> 6) & 0x0FFF; 
....................          ecan2_message_buffer[port][1]=temp; 
....................          temp=(((id & 0x3F) << 10) | (((uint16_t)rtr << 9) | (uint16_t)len)) & 0xFF1F; 
....................          ecan2_message_buffer[port][2]=temp; 
....................       } 
....................       else 
....................       {   
....................          temp=(((id & 0x7FF) << 2) | (((uint16_t)rtr << 1) | (uint16_t)ext)) & 0x1FFF; 
....................          ecan2_message_buffer[port][0]=temp; 
....................          ecan2_message_buffer[port][1]=0x0000; 
....................          temp=(((uint16_t)rtr << 9) | (uint16_t)len) & 0xFF1F; 
....................          ecan2_message_buffer[port][2]=temp; 
....................       } 
....................        
....................       ptr=&ecan2_message_buffer[port][3]; 
....................       for(i=0;i<len;i+=2) 
....................       { 
....................          if (i+1==len) 
....................             *ptr=make16(0,data[i]); 
....................          else 
....................             *ptr=make16(data[i+1],data[i]); 
....................          ptr++; 
....................       } 
....................        
....................       switch(port) 
....................       { 
....................          case  0: 
....................             C2TR01CON.txmpri=priority;          //set priority DMA buffer 0 
....................             C2TR01CON.txreqm=1;                 //enable transmission buffer 0 
....................             break; 
....................          case 1: 
....................             C2TR01CON.txnpri=priority;          //set priority DMA buffer 1 
....................             C2TR01CON.txreqn=1;                 //enable transmission buffer 1 
....................             break; 
....................          case 2: 
....................             C2TR23CON.txmpri=priority;          //set priority DMA buffer 2 
....................             C2TR23CON.txreqm=1;                 //enable transmission buffer 2 
....................             break; 
....................          case 3: 
....................             C2TR23CON.txnpri=priority;          //set priority DMA buffer 3 
....................             C2TR23CON.txreqn=1;                 //enable transmission buffer 3 
....................             break; 
....................          case 4: 
....................             C2TR45CON.txmpri=priority;          //set priority DMA buffer 4 
....................             C2TR45CON.txreqm=1;                 //enable transmission buffer 4 
....................             break; 
....................          case 5: 
....................             C2TR45CON.txnpri=priority;          //set priority DMA buffer 5 
....................             C2TR45CON.txreqn=1;                 //enable transmission buffer 5 
....................             break; 
....................          case 6: 
....................             C2TR67CON.txmpri=priority;          //set priority DMA buffer 6 
....................             C2TR67CON.txreqm=1;                 //enable transmission buffer 6 
....................             break; 
....................          case 7: 
....................             C2TR67CON.txnpri=priority;          //set priority DMA buffer 7 
....................             C2TR67CON.txreqn=1;                 //enable transmission buffer 7 
....................             break; 
....................       } 
....................            
....................       #if CAN_DO_DEBUG 
....................                can_debug("\r\nCAN2_PUTD(): BUFF=%U ID=%LX LEN=%U PRI=%U EXT=%U RTR=%U\r\n", port, id, len, priority, ext, rtr); 
....................                if ((len)&&(!rtr)) { 
....................                   can_debug("  DATA = "); 
....................                   for (i=0;i<len;i++) { 
....................                      can_debug("%X ",*data); 
....................                      data++; 
....................                   } 
....................                   can_debug("\r\n"); 
....................                } 
....................       #endif  
....................     
....................       return(1); 
....................    } 
.................... #endif 
....................  
.................... //////////////////////////////////////////////////////////////////////////////// 
.................... // 
.................... // can_getd() 
.................... // can2_getd() 
.................... // 
.................... // Gets data from a receive buffer, if the data exists 
.................... // 
.................... //    Parameters: 
.................... //      id - ID who sent message 
.................... //      data - pointer to array of data 
.................... //      len - length of received data 
.................... //      stat - structure holding some information (such as which buffer 
.................... //             received it, ext or standard, etc) 
.................... // 
.................... //    Returns: 
.................... //      Function call returns a TRUE if there was data in a RX buffer, FALSE 
.................... //      if there was none. 
.................... // 
.................... //////////////////////////////////////////////////////////////////////////////// 
.................... int1 can_getd(uint32_t &id, uint8_t *data, uint8_t &len, struct rx_stat &stat) 
.................... { 
....................    uint16_t i; 
....................    uint16_t *ptr; 
....................    int1 temp; 
....................                
....................    if (C1RXFUL1.rxful0) 
....................    { 
....................       stat.buffer=0; 
....................       stat.err_ovfl=C1RXOVF1.rxovf0; 
....................       C1RXOVF1.rxovf0=0; 
....................    } 
....................    else if (C1RXFUL1.rxful1) 
....................    { 
....................       stat.buffer=1; 
....................       stat.err_ovfl=C1RXOVF1.rxovf1; 
....................       C1RXOVF1.rxovf1=0; 
....................    } 
....................    else if (C1RXFUL1.rxful2) 
....................    { 
....................       stat.buffer=2; 
....................       stat.err_ovfl=C1RXOVF1.rxovf2; 
....................       C1RXOVF1.rxovf2=0; 
....................    } 
....................    else if (C1RXFUL1.rxful3) 
....................    { 
....................       stat.buffer=3; 
....................       stat.err_ovfl=C1RXOVF1.rxovf3; 
....................       C1RXOVF1.rxovf3=0; 
....................    } 
....................    else if (C1RXFUL1.rxful4) 
....................    { 
....................       stat.buffer=4; 
....................       stat.err_ovfl=C1RXOVF1.rxovf4; 
....................       C1RXOVF1.rxovf4=0; 
....................    } 
....................    else if (C1RXFUL1.rxful5) 
....................    { 
....................       stat.buffer=5; 
....................       stat.err_ovfl=C1RXOVF1.rxovf5; 
....................       C1RXOVF1.rxovf5=0; 
....................    }    
....................    else if (C1RXFUL1.rxful6) 
....................    { 
....................       stat.buffer=6; 
....................       stat.err_ovfl=C1RXOVF1.rxovf6; 
....................       C1RXOVF1.rxovf6=0; 
....................    } 
....................    else if (C1RXFUL1.rxful7) 
....................    { 
....................       stat.buffer=7; 
....................       stat.err_ovfl=C1RXOVF1.rxovf7; 
....................       C1RXOVF1.rxovf7=0; 
....................    } 
....................    else if (C1RXFUL1.rxful8) 
....................    { 
....................       stat.buffer=8; 
....................       stat.err_ovfl=C1RXOVF1.rxovf8; 
....................       C1RXOVF1.rxovf8=0; 
....................    } 
....................    else if (C1RXFUL1.rxful9) 
....................    { 
....................       stat.buffer=9; 
....................       stat.err_ovfl=C1RXOVF1.rxovf9; 
....................       C1RXOVF1.rxovf9=0; 
....................    } 
....................    else if (C1RXFUL1.rxful10) 
....................    { 
....................       stat.buffer=10; 
....................       stat.err_ovfl=C1RXOVF1.rxovf10; 
....................       C1RXOVF1.rxovf10=0; 
....................    } 
....................    else if (C1RXFUL1.rxful11) 
....................    { 
....................       stat.buffer=11; 
....................       stat.err_ovfl=C1RXOVF1.rxovf11; 
....................       C1RXOVF1.rxovf11=0; 
....................    } 
....................    else if (C1RXFUL1.rxful12) 
....................    { 
....................       stat.buffer=12; 
....................       stat.err_ovfl=C1RXOVF1.rxovf12; 
....................       C1RXOVF1.rxovf12=0; 
....................    } 
....................    else if (C1RXFUL1.rxful13) 
....................    { 
....................       stat.buffer=13; 
....................       stat.err_ovfl=C1RXOVF1.rxovf13; 
....................       C1RXOVF1.rxovf13=0; 
....................    } 
....................    else if (C1RXFUL1.rxful14) 
....................    { 
....................       stat.buffer=14; 
....................       stat.err_ovfl=C1RXOVF1.rxovf14; 
....................       C1RXOVF1.rxovf14=0; 
....................    } 
....................    else if (C1RXFUL1.rxful15) 
....................    { 
....................       stat.buffer=15; 
....................       stat.err_ovfl=C1RXOVF1.rxovf15; 
....................       C1RXOVF1.rxovf15=0; 
....................    } 
....................    else if (C1RXFUL2.rxful16) 
....................    { 
....................       stat.buffer=16; 
....................       stat.err_ovfl=C1RXOVF2.rxovf16; 
....................       C1RXOVF2.rxovf16=0; 
....................    } 
....................    else if (C1RXFUL2.rxful17) 
....................    { 
....................       stat.buffer=17; 
....................       stat.err_ovfl=C1RXOVF2.rxovf17; 
....................       C1RXOVF2.rxovf17=0; 
....................    } 
....................    else if (C1RXFUL2.rxful18) 
....................    { 
....................       stat.buffer=18; 
....................       stat.err_ovfl=C1RXOVF2.rxovf18; 
....................       C1RXOVF2.rxovf18=0; 
....................    } 
....................    else if (C1RXFUL2.rxful19) 
....................    { 
....................       stat.buffer=19; 
....................       stat.err_ovfl=C1RXOVF2.rxovf19; 
....................       C1RXOVF2.rxovf19=0; 
....................    } 
....................    else if (C1RXFUL2.rxful20) 
....................    { 
....................       stat.buffer=20; 
....................       stat.err_ovfl=C1RXOVF2.rxovf20; 
....................       C1RXOVF2.rxovf20=0; 
....................    } 
....................    else if (C1RXFUL2.rxful21) 
....................    { 
....................       stat.buffer=21; 
....................       stat.err_ovfl=C1RXOVF2.rxovf21; 
....................       C1RXOVF2.rxovf21=0; 
....................    } 
....................    else if (C1RXFUL2.rxful22) 
....................    { 
....................       stat.buffer=22; 
....................       stat.err_ovfl=C1RXOVF2.rxovf22; 
....................       C1RXOVF2.rxovf22=0; 
....................    } 
....................    else if (C1RXFUL2.rxful23) 
....................    { 
....................       stat.buffer=23; 
....................       stat.err_ovfl=C1RXOVF2.rxovf23; 
....................       C1RXOVF2.rxovf23=0; 
....................    } 
....................    else if (C1RXFUL2.rxful24) 
....................    { 
....................       stat.buffer=24; 
....................       stat.err_ovfl=C1RXOVF2.rxovf24; 
....................       C1RXOVF2.rxovf24=0; 
....................    } 
....................    else if (C1RXFUL2.rxful25) 
....................    { 
....................       stat.buffer=25; 
....................       stat.err_ovfl=C1RXOVF2.rxovf25; 
....................       C1RXOVF2.rxovf25=0; 
....................    } 
....................    else if (C1RXFUL2.rxful26) 
....................    { 
....................       stat.buffer=26; 
....................       stat.err_ovfl=C1RXOVF2.rxovf26; 
....................       C1RXOVF2.rxovf26=0; 
....................    } 
....................    else if (C1RXFUL2.rxful27) 
....................    { 
....................       stat.buffer=27; 
....................       stat.err_ovfl=C1RXOVF2.rxovf27; 
....................       C1RXOVF2.rxovf27=0; 
....................    } 
....................    else if (C1RXFUL2.rxful28) 
....................    { 
....................       stat.buffer=28; 
....................       stat.err_ovfl=C1RXOVF2.rxovf28; 
....................       C1RXOVF2.rxovf28=0; 
....................    } 
....................    else if (C1RXFUL2.rxful29) 
....................    { 
....................       stat.buffer=29; 
....................       stat.err_ovfl=C1RXOVF2.rxovf29; 
....................       C1RXOVF2.rxovf29=0; 
....................    } 
....................    else if (C1RXFUL2.rxful30) 
....................    { 
....................       stat.buffer=30; 
....................       stat.err_ovfl=C1RXOVF2.rxovf30; 
....................       C1RXOVF2.rxovf30=0; 
....................    } 
....................    else if (C1RXFUL2.rxful31) 
....................    { 
....................       stat.buffer=31; 
....................       stat.err_ovfl=C1RXOVF2.rxovf31; 
....................       C1RXOVF2.rxovf31=0; 
....................    } 
....................    else 
....................     { 
....................       #if CAN_DO_DEBUG 
....................          can_debug("\r\nFAIL ON CAN_GETD(): NO MESSAGE IN BUFFER\r\n"); 
....................       #endif 
....................       return (0); 
....................     } 
....................     
....................    C1INTF.rbif=0; 
....................     
....................    ptr=&ecan1_message_buffer[stat.buffer][0]; 
....................    stat.ext=(*ptr & 0x1); 
....................    temp=(*ptr & 0x1); 
....................       
....................    ptr+=2; 
....................    len=(*ptr & 0xF); 
....................    stat.rtr=((make8(*ptr,1) & 0x2) >> 1); 
....................     
....................    ptr+=5; 
....................    stat.filthit=(make8(*ptr,1) & 0x1F); 
....................        
....................    id=can_get_id(stat.buffer,temp); 
....................     
....................    ptr=&ecan1_message_buffer[stat.buffer][3]; 
....................    for(i=0;i<len;i+=2) 
....................    { 
....................       data[i]=make8(*ptr,0); 
....................       if (i+1!=len) 
....................          data[i+1]=make8(*ptr,1); 
....................       ptr++; 
....................    } 
....................     
....................    stat.inv=C1INTF.ivrif; 
....................    C1INTF.ivrif=0; 
....................     
....................   #ifndef DONT_USE_ERRATA_WORKAROUND 
....................    //This change was made to workaround an errata the dsPIC33EV family has 
....................    if(stat.buffer < 16) 
....................       (uint16_t)C1RXFUL1 = ~(0x0001 << (uint16_t)stat.buffer); 
....................    else 
....................       (uint16_t)C1RXFUL2 = ~(0x0001 << ((uint16_t)stat.buffer - 16)); 
....................   #else 
....................       switch(stat.buffer) 
....................    { 
....................       case 0: 
....................          C1RXFUL1.rxful0=0; 
....................          break; 
....................       case 1: 
....................          C1RXFUL1.rxful1=0; 
....................          break; 
....................       case 2: 
....................          C1RXFUL1.rxful2=0; 
....................          break; 
....................       case 3: 
....................          C1RXFUL1.rxful3=0; 
....................          break; 
....................       case 4: 
....................          C1RXFUL1.rxful4=0; 
....................          break; 
....................       case 5: 
....................          C1RXFUL1.rxful5=0; 
....................          break; 
....................       case 6: 
....................          C1RXFUL1.rxful6=0; 
....................          break; 
....................       case 7: 
....................          C1RXFUL1.rxful7=0; 
....................          break; 
....................       case 8: 
....................          C1RXFUL1.rxful8=0; 
....................          break; 
....................       case 9: 
....................          C1RXFUL1.rxful9=0; 
....................          break; 
....................       case 10: 
....................          C1RXFUL1.rxful10=0; 
....................          break; 
....................       case 11: 
....................          C1RXFUL1.rxful11=0; 
....................          break; 
....................       case 12: 
....................          C1RXFUL1.rxful12=0; 
....................          break; 
....................       case 13: 
....................          C1RXFUL1.rxful13=0; 
....................          break; 
....................       case 14: 
....................          C1RXFUL1.rxful14=0; 
....................          break; 
....................       case 15: 
....................          C1RXFUL1.rxful15=0; 
....................          break; 
....................       case 16: 
....................          C1RXFUL2.rxful16=0; 
....................          break; 
....................       case 17: 
....................          C1RXFUL2.rxful17=0; 
....................          break; 
....................       case 18: 
....................          C1RXFUL2.rxful18=0; 
....................          break; 
....................       case 19: 
....................          C1RXFUL2.rxful19=0; 
....................          break; 
....................       case 20: 
....................          C1RXFUL2.rxful20=0; 
....................          break; 
....................       case 21: 
....................          C1RXFUL2.rxful21=0; 
....................          break; 
....................       case 22: 
....................          C1RXFUL2.rxful22=0; 
....................          break; 
....................       case 23: 
....................          C1RXFUL2.rxful23=0; 
....................          break; 
....................       case 24: 
....................          C1RXFUL2.rxful24=0; 
....................          break; 
....................       case 25: 
....................          C1RXFUL2.rxful25=0; 
....................          break; 
....................       case 26: 
....................          C1RXFUL2.rxful26=0; 
....................          break; 
....................       case 27: 
....................          C1RXFUL2.rxful27=0; 
....................          break; 
....................       case 28: 
....................          C1RXFUL2.rxful28=0; 
....................          break; 
....................       case 29: 
....................          C1RXFUL2.rxful29=0; 
....................          break; 
....................       case 30: 
....................          C1RXFUL2.rxful30=0; 
....................          break; 
....................       case 31: 
....................          C1RXFUL2.rxful31=0; 
....................          break; 
....................    } 
....................   #endif 
....................     
....................    #if CAN_DO_DEBUG 
....................        can_debug("\r\nCAN_GETD(): BUFF=%U ID=%LX LEN=%U OVF=%U ", stat.buffer, id, len, stat.err_ovfl); 
....................        can_debug("FILT=%U RTR=%U EXT=%U INV=%U", stat.filthit, stat.rtr, stat.ext, stat.inv); 
....................        if ((len)&&(!stat.rtr)) { 
....................           can_debug("\r\n    DATA = "); 
....................           for (i=0;i<len;i++) { 
....................             can_debug("%X ",*data); 
....................             data++; 
....................           } 
....................        } 
....................        can_debug("\r\n"); 
....................     #endif  
....................      
....................     return(1); 
.................... } 
....................  
.................... #if getenv("SFR_VALID:C2CTRL1") 
....................    int1 can2_getd(uint32_t &id, uint8_t *data, uint8_t &len, struct rx_stat &stat) 
....................    { 
....................       uint16_t i; 
....................       uint16_t *ptr; 
....................       int1 temp; 
....................                   
....................       if (C2RXFUL1.rxful0) 
*
0031E:  BTSS.B  520.0
00320:  BRA     330
....................       { 
....................          stat.buffer=0; 
00322:  CLR.B   104B
....................          stat.err_ovfl=C2RXOVF1.rxovf0; 
00324:  BCLR.B  104C.0
00326:  BTSC.B  528.0
00328:  BSET.B  104C.0
....................          C2RXOVF1.rxovf0=0; 
0032A:  BCLR.B  528.0
....................       } 
0032C:  GOTO    5A0
....................       else if (C2RXFUL1.rxful1) 
00330:  BTSS.B  520.1
00332:  BRA     344
....................       { 
....................          stat.buffer=1; 
00334:  MOV.B   #1,W0L
00336:  MOV.B   W0L,104B
....................          stat.err_ovfl=C2RXOVF1.rxovf1; 
00338:  BCLR.B  104C.0
0033A:  BTSC.B  528.1
0033C:  BSET.B  104C.0
....................          C2RXOVF1.rxovf1=0; 
0033E:  BCLR.B  528.1
....................       } 
00340:  GOTO    5A0
....................       else if (C2RXFUL1.rxful2) 
00344:  BTSS.B  520.2
00346:  BRA     358
....................       { 
....................          stat.buffer=2; 
00348:  MOV.B   #2,W0L
0034A:  MOV.B   W0L,104B
....................          stat.err_ovfl=C2RXOVF1.rxovf2; 
0034C:  BCLR.B  104C.0
0034E:  BTSC.B  528.2
00350:  BSET.B  104C.0
....................          C2RXOVF1.rxovf2=0; 
00352:  BCLR.B  528.2
....................       } 
00354:  GOTO    5A0
....................       else if (C2RXFUL1.rxful3) 
00358:  BTSS.B  520.3
0035A:  BRA     36C
....................       { 
....................          stat.buffer=3; 
0035C:  MOV.B   #3,W0L
0035E:  MOV.B   W0L,104B
....................          stat.err_ovfl=C2RXOVF1.rxovf3; 
00360:  BCLR.B  104C.0
00362:  BTSC.B  528.3
00364:  BSET.B  104C.0
....................          C2RXOVF1.rxovf3=0; 
00366:  BCLR.B  528.3
....................       } 
00368:  GOTO    5A0
....................       else if (C2RXFUL1.rxful4) 
0036C:  BTSS.B  520.4
0036E:  BRA     380
....................       { 
....................          stat.buffer=4; 
00370:  MOV.B   #4,W0L
00372:  MOV.B   W0L,104B
....................          stat.err_ovfl=C2RXOVF1.rxovf4; 
00374:  BCLR.B  104C.0
00376:  BTSC.B  528.4
00378:  BSET.B  104C.0
....................          C2RXOVF1.rxovf4=0; 
0037A:  BCLR.B  528.4
....................       } 
0037C:  GOTO    5A0
....................       else if (C2RXFUL1.rxful5) 
00380:  BTSS.B  520.5
00382:  BRA     394
....................       { 
....................          stat.buffer=5; 
00384:  MOV.B   #5,W0L
00386:  MOV.B   W0L,104B
....................          stat.err_ovfl=C2RXOVF1.rxovf5; 
00388:  BCLR.B  104C.0
0038A:  BTSC.B  528.5
0038C:  BSET.B  104C.0
....................          C2RXOVF1.rxovf5=0; 
0038E:  BCLR.B  528.5
....................       }    
00390:  GOTO    5A0
....................       else if (C2RXFUL1.rxful6) 
00394:  BTSS.B  520.6
00396:  BRA     3A8
....................       { 
....................          stat.buffer=6; 
00398:  MOV.B   #6,W0L
0039A:  MOV.B   W0L,104B
....................          stat.err_ovfl=C2RXOVF1.rxovf6; 
0039C:  BCLR.B  104C.0
0039E:  BTSC.B  528.6
003A0:  BSET.B  104C.0
....................          C2RXOVF1.rxovf6=0; 
003A2:  BCLR.B  528.6
....................       } 
003A4:  GOTO    5A0
....................       else if (C2RXFUL1.rxful7) 
003A8:  BTSS.B  520.7
003AA:  BRA     3BC
....................       { 
....................          stat.buffer=7; 
003AC:  MOV.B   #7,W0L
003AE:  MOV.B   W0L,104B
....................          stat.err_ovfl=C2RXOVF1.rxovf7; 
003B0:  BCLR.B  104C.0
003B2:  BTSC.B  528.7
003B4:  BSET.B  104C.0
....................          C2RXOVF1.rxovf7=0; 
003B6:  BCLR.B  528.7
....................       } 
003B8:  GOTO    5A0
....................       else if (C2RXFUL1.rxful8) 
003BC:  BTSS.B  521.0
003BE:  BRA     3D0
....................       { 
....................          stat.buffer=8; 
003C0:  MOV.B   #8,W0L
003C2:  MOV.B   W0L,104B
....................          stat.err_ovfl=C2RXOVF1.rxovf8; 
003C4:  BCLR.B  104C.0
003C6:  BTSC.B  529.0
003C8:  BSET.B  104C.0
....................          C2RXOVF1.rxovf8=0; 
003CA:  BCLR.B  529.0
....................       } 
003CC:  GOTO    5A0
....................       else if (C2RXFUL1.rxful9) 
003D0:  BTSS.B  521.1
003D2:  BRA     3E4
....................       { 
....................          stat.buffer=9; 
003D4:  MOV.B   #9,W0L
003D6:  MOV.B   W0L,104B
....................          stat.err_ovfl=C2RXOVF1.rxovf9; 
003D8:  BCLR.B  104C.0
003DA:  BTSC.B  529.1
003DC:  BSET.B  104C.0
....................          C2RXOVF1.rxovf9=0; 
003DE:  BCLR.B  529.1
....................       } 
003E0:  GOTO    5A0
....................       else if (C2RXFUL1.rxful10) 
003E4:  BTSS.B  521.2
003E6:  BRA     3F8
....................       { 
....................          stat.buffer=10; 
003E8:  MOV.B   #A,W0L
003EA:  MOV.B   W0L,104B
....................          stat.err_ovfl=C2RXOVF1.rxovf10; 
003EC:  BCLR.B  104C.0
003EE:  BTSC.B  529.2
003F0:  BSET.B  104C.0
....................          C2RXOVF1.rxovf10=0; 
003F2:  BCLR.B  529.2
....................       } 
003F4:  GOTO    5A0
....................       else if (C2RXFUL1.rxful11) 
003F8:  BTSS.B  521.3
003FA:  BRA     40C
....................       { 
....................          stat.buffer=11; 
003FC:  MOV.B   #B,W0L
003FE:  MOV.B   W0L,104B
....................          stat.err_ovfl=C2RXOVF1.rxovf11; 
00400:  BCLR.B  104C.0
00402:  BTSC.B  529.3
00404:  BSET.B  104C.0
....................          C2RXOVF1.rxovf11=0; 
00406:  BCLR.B  529.3
....................       } 
00408:  GOTO    5A0
....................       else if (C2RXFUL1.rxful12) 
0040C:  BTSS.B  521.4
0040E:  BRA     420
....................       { 
....................          stat.buffer=12; 
00410:  MOV.B   #C,W0L
00412:  MOV.B   W0L,104B
....................          stat.err_ovfl=C2RXOVF1.rxovf12; 
00414:  BCLR.B  104C.0
00416:  BTSC.B  529.4
00418:  BSET.B  104C.0
....................          C2RXOVF1.rxovf12=0; 
0041A:  BCLR.B  529.4
....................       } 
0041C:  GOTO    5A0
....................       else if (C2RXFUL1.rxful13) 
00420:  BTSS.B  521.5
00422:  BRA     434
....................       { 
....................          stat.buffer=13; 
00424:  MOV.B   #D,W0L
00426:  MOV.B   W0L,104B
....................          stat.err_ovfl=C2RXOVF1.rxovf13; 
00428:  BCLR.B  104C.0
0042A:  BTSC.B  529.5
0042C:  BSET.B  104C.0
....................          C2RXOVF1.rxovf13=0; 
0042E:  BCLR.B  529.5
....................       } 
00430:  GOTO    5A0
....................       else if (C2RXFUL1.rxful14) 
00434:  BTSS.B  521.6
00436:  BRA     448
....................       { 
....................          stat.buffer=14; 
00438:  MOV.B   #E,W0L
0043A:  MOV.B   W0L,104B
....................          stat.err_ovfl=C2RXOVF1.rxovf14; 
0043C:  BCLR.B  104C.0
0043E:  BTSC.B  529.6
00440:  BSET.B  104C.0
....................          C2RXOVF1.rxovf14=0; 
00442:  BCLR.B  529.6
....................       } 
00444:  GOTO    5A0
....................       else if (C2RXFUL1.rxful15) 
00448:  BTSS.B  521.7
0044A:  BRA     45C
....................       { 
....................          stat.buffer=15; 
0044C:  MOV.B   #F,W0L
0044E:  MOV.B   W0L,104B
....................          stat.err_ovfl=C2RXOVF1.rxovf15; 
00450:  BCLR.B  104C.0
00452:  BTSC.B  529.7
00454:  BSET.B  104C.0
....................          C2RXOVF1.rxovf15=0; 
00456:  BCLR.B  529.7
....................       } 
00458:  GOTO    5A0
....................       else if (C2RXFUL2.rxful16) 
0045C:  BTSS.B  522.0
0045E:  BRA     470
....................       { 
....................          stat.buffer=16; 
00460:  MOV.B   #10,W0L
00462:  MOV.B   W0L,104B
....................          stat.err_ovfl=C2RXOVF2.rxovf16; 
00464:  BCLR.B  104C.0
00466:  BTSC.B  52A.0
00468:  BSET.B  104C.0
....................          C2RXOVF2.rxovf16=0; 
0046A:  BCLR.B  52A.0
....................       } 
0046C:  GOTO    5A0
....................       else if (C2RXFUL2.rxful17) 
00470:  BTSS.B  522.1
00472:  BRA     484
....................       { 
....................          stat.buffer=17; 
00474:  MOV.B   #11,W0L
00476:  MOV.B   W0L,104B
....................          stat.err_ovfl=C2RXOVF2.rxovf17; 
00478:  BCLR.B  104C.0
0047A:  BTSC.B  52A.1
0047C:  BSET.B  104C.0
....................          C2RXOVF2.rxovf17=0; 
0047E:  BCLR.B  52A.1
....................       } 
00480:  GOTO    5A0
....................       else if (C2RXFUL2.rxful18) 
00484:  BTSS.B  522.2
00486:  BRA     498
....................       { 
....................          stat.buffer=18; 
00488:  MOV.B   #12,W0L
0048A:  MOV.B   W0L,104B
....................          stat.err_ovfl=C2RXOVF2.rxovf18; 
0048C:  BCLR.B  104C.0
0048E:  BTSC.B  52A.2
00490:  BSET.B  104C.0
....................          C2RXOVF2.rxovf18=0; 
00492:  BCLR.B  52A.2
....................       } 
00494:  GOTO    5A0
....................       else if (C2RXFUL2.rxful19) 
00498:  BTSS.B  522.3
0049A:  BRA     4AC
....................       { 
....................          stat.buffer=19; 
0049C:  MOV.B   #13,W0L
0049E:  MOV.B   W0L,104B
....................          stat.err_ovfl=C2RXOVF2.rxovf19; 
004A0:  BCLR.B  104C.0
004A2:  BTSC.B  52A.3
004A4:  BSET.B  104C.0
....................          C2RXOVF2.rxovf19=0; 
004A6:  BCLR.B  52A.3
....................       } 
004A8:  GOTO    5A0
....................       else if (C2RXFUL2.rxful20) 
004AC:  BTSS.B  522.4
004AE:  BRA     4C0
....................       { 
....................          stat.buffer=20; 
004B0:  MOV.B   #14,W0L
004B2:  MOV.B   W0L,104B
....................          stat.err_ovfl=C2RXOVF2.rxovf20; 
004B4:  BCLR.B  104C.0
004B6:  BTSC.B  52A.4
004B8:  BSET.B  104C.0
....................          C2RXOVF2.rxovf20=0; 
004BA:  BCLR.B  52A.4
....................       } 
004BC:  GOTO    5A0
....................       else if (C2RXFUL2.rxful21) 
004C0:  BTSS.B  522.5
004C2:  BRA     4D4
....................       { 
....................          stat.buffer=21; 
004C4:  MOV.B   #15,W0L
004C6:  MOV.B   W0L,104B
....................          stat.err_ovfl=C2RXOVF2.rxovf21; 
004C8:  BCLR.B  104C.0
004CA:  BTSC.B  52A.5
004CC:  BSET.B  104C.0
....................          C2RXOVF2.rxovf21=0; 
004CE:  BCLR.B  52A.5
....................       } 
004D0:  GOTO    5A0
....................       else if (C2RXFUL2.rxful22) 
004D4:  BTSS.B  522.6
004D6:  BRA     4E8
....................       { 
....................          stat.buffer=22; 
004D8:  MOV.B   #16,W0L
004DA:  MOV.B   W0L,104B
....................          stat.err_ovfl=C2RXOVF2.rxovf22; 
004DC:  BCLR.B  104C.0
004DE:  BTSC.B  52A.6
004E0:  BSET.B  104C.0
....................          C2RXOVF2.rxovf22=0; 
004E2:  BCLR.B  52A.6
....................       } 
004E4:  GOTO    5A0
....................       else if (C2RXFUL2.rxful23) 
004E8:  BTSS.B  522.7
004EA:  BRA     4FC
....................       { 
....................          stat.buffer=23; 
004EC:  MOV.B   #17,W0L
004EE:  MOV.B   W0L,104B
....................          stat.err_ovfl=C2RXOVF2.rxovf23; 
004F0:  BCLR.B  104C.0
004F2:  BTSC.B  52A.7
004F4:  BSET.B  104C.0
....................          C2RXOVF2.rxovf23=0; 
004F6:  BCLR.B  52A.7
....................       } 
004F8:  GOTO    5A0
....................       else if (C2RXFUL2.rxful24) 
004FC:  BTSS.B  523.0
004FE:  BRA     510
....................       { 
....................          stat.buffer=24; 
00500:  MOV.B   #18,W0L
00502:  MOV.B   W0L,104B
....................          stat.err_ovfl=C2RXOVF2.rxovf24; 
00504:  BCLR.B  104C.0
00506:  BTSC.B  52B.0
00508:  BSET.B  104C.0
....................          C2RXOVF2.rxovf24=0; 
0050A:  BCLR.B  52B.0
....................       } 
0050C:  GOTO    5A0
....................       else if (C2RXFUL2.rxful25) 
00510:  BTSS.B  523.1
00512:  BRA     524
....................       { 
....................          stat.buffer=25; 
00514:  MOV.B   #19,W0L
00516:  MOV.B   W0L,104B
....................          stat.err_ovfl=C2RXOVF2.rxovf25; 
00518:  BCLR.B  104C.0
0051A:  BTSC.B  52B.1
0051C:  BSET.B  104C.0
....................          C2RXOVF2.rxovf25=0; 
0051E:  BCLR.B  52B.1
....................       } 
00520:  GOTO    5A0
....................       else if (C2RXFUL2.rxful26) 
00524:  BTSS.B  523.2
00526:  BRA     538
....................       { 
....................          stat.buffer=26; 
00528:  MOV.B   #1A,W0L
0052A:  MOV.B   W0L,104B
....................          stat.err_ovfl=C2RXOVF2.rxovf26; 
0052C:  BCLR.B  104C.0
0052E:  BTSC.B  52B.2
00530:  BSET.B  104C.0
....................          C2RXOVF2.rxovf26=0; 
00532:  BCLR.B  52B.2
....................       } 
00534:  GOTO    5A0
....................       else if (C2RXFUL2.rxful27) 
00538:  BTSS.B  523.3
0053A:  BRA     54C
....................       { 
....................          stat.buffer=27; 
0053C:  MOV.B   #1B,W0L
0053E:  MOV.B   W0L,104B
....................          stat.err_ovfl=C2RXOVF2.rxovf27; 
00540:  BCLR.B  104C.0
00542:  BTSC.B  52B.3
00544:  BSET.B  104C.0
....................          C2RXOVF2.rxovf27=0; 
00546:  BCLR.B  52B.3
....................       } 
00548:  GOTO    5A0
....................       else if (C2RXFUL2.rxful28) 
0054C:  BTSS.B  523.4
0054E:  BRA     560
....................       { 
....................          stat.buffer=28; 
00550:  MOV.B   #1C,W0L
00552:  MOV.B   W0L,104B
....................          stat.err_ovfl=C2RXOVF2.rxovf28; 
00554:  BCLR.B  104C.0
00556:  BTSC.B  52B.4
00558:  BSET.B  104C.0
....................          C2RXOVF2.rxovf28=0; 
0055A:  BCLR.B  52B.4
....................       } 
0055C:  GOTO    5A0
....................       else if (C2RXFUL2.rxful29) 
00560:  BTSS.B  523.5
00562:  BRA     574
....................       { 
....................          stat.buffer=29; 
00564:  MOV.B   #1D,W0L
00566:  MOV.B   W0L,104B
....................          stat.err_ovfl=C2RXOVF2.rxovf29; 
00568:  BCLR.B  104C.0
0056A:  BTSC.B  52B.5
0056C:  BSET.B  104C.0
....................          C2RXOVF2.rxovf29=0; 
0056E:  BCLR.B  52B.5
....................       } 
00570:  GOTO    5A0
....................       else if (C2RXFUL2.rxful30) 
00574:  BTSS.B  523.6
00576:  BRA     588
....................       { 
....................          stat.buffer=30; 
00578:  MOV.B   #1E,W0L
0057A:  MOV.B   W0L,104B
....................          stat.err_ovfl=C2RXOVF2.rxovf30; 
0057C:  BCLR.B  104C.0
0057E:  BTSC.B  52B.6
00580:  BSET.B  104C.0
....................          C2RXOVF2.rxovf30=0; 
00582:  BCLR.B  52B.6
....................       } 
00584:  GOTO    5A0
....................       else if (C2RXFUL2.rxful31) 
00588:  BTSS.B  523.7
0058A:  BRA     59C
....................       { 
....................          stat.buffer=31; 
0058C:  MOV.B   #1F,W0L
0058E:  MOV.B   W0L,104B
....................          stat.err_ovfl=C2RXOVF2.rxovf31; 
00590:  BCLR.B  104C.0
00592:  BTSC.B  52B.7
00594:  BSET.B  104C.0
....................          C2RXOVF2.rxovf31=0; 
00596:  BCLR.B  52B.7
....................       } 
00598:  GOTO    5A0
....................       else 
....................        { 
....................          #if CAN_DO_DEBUG 
....................             can_debug("\r\nFAIL ON CAN2_GETD(): NO MESSAGE IN BUFFER\r\n"); 
....................          #endif 
....................          return (0); 
0059C:  CLR.B   0
0059E:  BRA     6A4
....................        } 
....................        
....................       C2INTF.rbif=0; 
005A0:  BCLR.B  50A.1
....................        
....................       ptr=&ecan2_message_buffer[stat.buffer][0]; 
005A2:  MOV.B   104B,W0L
005A4:  CLR.B   1
005A6:  SL      W0,#4,W5
005A8:  MOV     #D200,W4
005AA:  ADD     W5,W4,W0
005AC:  MOV     W0,1060
....................       stat.ext=(*ptr & 0x1); 
005AE:  MOV     1060,W0
005B0:  MOV     [W0],W5
005B2:  AND     W5,#1,W0
005B4:  BCLR.B  104C.2
005B6:  BTSC.B  0.0
005B8:  BSET.B  104C.2
....................       temp=(*ptr & 0x1); 
005BA:  MOV     1060,W0
005BC:  MOV     [W0],W5
005BE:  AND     W5,#1,W0
005C0:  BCLR.B  105C.0
005C2:  BTSC.B  0.0
005C4:  BSET.B  105C.0
....................          
....................       ptr+=2; 
005C6:  MOV     1060,W4
005C8:  ADD     W4,#4,W0
005CA:  MOV     W0,1060
....................       len=(*ptr & 0xF); 
005CC:  MOV     1060,W0
005CE:  MOV     [W0],W5
005D0:  AND.B   W5L,#F,W0L
005D2:  MOV.B   W0L,1048
....................       stat.rtr=((make8(*ptr,1) & 0x2) >> 1); 
005D4:  MOV     1060,W0
005D6:  MOV     [W0],W5
005D8:  MOV.B   B,W0L
005DA:  MOV.B   W0L,W0L
005DC:  CLR.B   1
005DE:  AND     W0,#2,W6
005E0:  LSR     W6,#1,W0
005E2:  BCLR.B  104C.1
005E4:  BTSC.B  0.0
005E6:  BSET.B  104C.1
....................        
....................       ptr+=5; 
005E8:  MOV     1060,W4
005EA:  ADD     W4,#A,W0
005EC:  MOV     W0,1060
....................       stat.filthit=(make8(*ptr,1) & 0x1F); 
005EE:  MOV     1060,W0
005F0:  MOV     [W0],W5
005F2:  MOV.B   B,W0L
005F4:  MOV.B   W0L,W0L
005F6:  AND.B   W0L,#1F,W0L
005F8:  MOV.B   W0L,104A
....................           
....................       id=can2_get_id(stat.buffer,temp); 
005FA:  CLR     W0
005FC:  BTSC.B  105C.0
005FE:  INC     W0,W0
00600:  MOV.B   W0L,W5L
00602:  MOV     W0,[W15++]
00604:  MOV.B   104B,W0L
00606:  MOV.B   W0L,106C
00608:  MOV     [--W15],W0
0060A:  PUSH    106C
0060C:  MOV.B   W5L,[W15-#1]
0060E:  POP     106C
00610:  CALL    280
00614:  MOV     W0,104E
00616:  MOV     W1,1050
....................        
....................       ptr=&ecan2_message_buffer[stat.buffer][3]; 
00618:  MOV.B   104B,W0L
0061A:  CLR.B   1
0061C:  SL      W0,#4,W5
0061E:  ADD     W5,#6,W0
00620:  MOV     #D200,W4
00622:  ADD     W0,W4,W0
00624:  MOV     W0,1060
....................       for(i=0;i<len;i+=2) 
00626:  CLR     105E
00628:  MOV.B   1048,W0L
0062A:  CLR.B   1
0062C:  MOV     105E,W4
0062E:  CP      W4,W0
00630:  BRA     C,66C
....................       { 
....................          data[i]=make8(*ptr,0); 
00632:  MOV     105E,W0
00634:  ADD     105A,W0
00636:  MOV     W0,W5
00638:  MOV     1060,W0
0063A:  MOV     [W0],W6
0063C:  MOV.B   W6L,W0L
0063E:  MOV.B   W0L,[W5]
....................          if (i+1!=len) 
00640:  MOV     105E,W4
00642:  ADD     W4,#1,W5
00644:  MOV.B   1048,W0L
00646:  CLR.B   1
00648:  CP      W0,W5
0064A:  BRA     Z,660
....................             data[i+1]=make8(*ptr,1); 
0064C:  MOV     105E,W4
0064E:  ADD     W4,#1,W5
00650:  MOV     W5,W0
00652:  ADD     105A,W0
00654:  MOV     W0,W6
00656:  MOV     1060,W0
00658:  MOV     [W0],W7
0065A:  MOV.B   F,W0L
0065C:  MOV.B   W0L,W0L
0065E:  MOV.B   W0L,[W6]
....................          ptr++; 
00660:  INC2    1060
00662:  MOV     105E,W4
00664:  ADD     W4,#2,W0
00666:  MOV     W0,105E
00668:  GOTO    628
....................       } 
....................        
....................       stat.inv=C2INTF.ivrif; 
0066C:  BCLR.B  104C.3
0066E:  BTSC.B  50A.7
00670:  BSET.B  104C.3
....................       C2INTF.ivrif=0; 
00672:  BCLR.B  50A.7
....................        
....................      #ifndef DONT_USE_ERRATA_WORKAROUND 
....................       //This change was made to workaround an errata the dsPIC33EV family has 
....................       if(stat.buffer < 16) 
00674:  MOV     104A,W4
00676:  LSR     W4,#8,W4
00678:  CP.B    W4L,#10
0067A:  BRA     C,68E
....................          (uint16_t)C2RXFUL1 = ~(0x0001 << (uint16_t)stat.buffer); 
0067C:  MOV.B   104B,W0L
0067E:  CLR.B   1
00680:  MOV     W0,W4
00682:  MOV     #1,W0
00684:  SL      W0,W4,W0
00686:  COM     W0,W0
00688:  MOV     W0,520
0068A:  GOTO    6A0
....................       else 
....................          (uint16_t)C2RXFUL2 = ~(0x0001 << ((uint16_t)stat.buffer - 16)); 
0068E:  MOV.B   104B,W0L
00690:  MOV.B   W0L,W5L
00692:  CLR.B   B
00694:  SUB     W5,#10,W0
00696:  MOV     W0,W4
00698:  MOV     #1,W0
0069A:  SL      W0,W4,W0
0069C:  COM     W0,W0
0069E:  MOV     W0,522
....................      #else 
....................       switch(stat.buffer) 
....................       { 
....................          case 0: 
....................             C2RXFUL1.rxful0=0; 
....................             break; 
....................          case 1: 
....................             C2RXFUL1.rxful1=0; 
....................             break; 
....................          case 2: 
....................             C2RXFUL1.rxful2=0; 
....................             break; 
....................          case 3: 
....................             C2RXFUL1.rxful3=0; 
....................             break; 
....................          case 4: 
....................             C2RXFUL1.rxful4=0; 
....................             break; 
....................          case 5: 
....................             C2RXFUL1.rxful5=0; 
....................             break; 
....................          case 6: 
....................             C2RXFUL1.rxful6=0; 
....................             break; 
....................          case 7: 
....................             C2RXFUL1.rxful7=0; 
....................             break; 
....................          case 8: 
....................             C2RXFUL1.rxful8=0; 
....................             break; 
....................          case 9: 
....................             C2RXFUL1.rxful9=0; 
....................             break; 
....................          case 10: 
....................             C2RXFUL1.rxful10=0; 
....................             break; 
....................          case 11: 
....................             C2RXFUL1.rxful11=0; 
....................             break; 
....................          case 12: 
....................             C2RXFUL1.rxful12=0; 
....................             break; 
....................          case 13: 
....................             C2RXFUL1.rxful13=0; 
....................             break; 
....................          case 14: 
....................             C2RXFUL1.rxful14=0; 
....................             break; 
....................          case 15: 
....................             C2RXFUL1.rxful15=0; 
....................             break; 
....................          case 16: 
....................             C2RXFUL2.rxful16=0; 
....................             break; 
....................          case 17: 
....................             C2RXFUL2.rxful17=0; 
....................             break; 
....................          case 18: 
....................             C2RXFUL2.rxful18=0; 
....................             break; 
....................          case 19: 
....................             C2RXFUL2.rxful19=0; 
....................             break; 
....................          case 20: 
....................             C2RXFUL2.rxful20=0; 
....................             break; 
....................          case 21: 
....................             C2RXFUL2.rxful21=0; 
....................             break; 
....................          case 22: 
....................             C2RXFUL2.rxful22=0; 
....................             break; 
....................          case 23: 
....................             C2RXFUL2.rxful23=0; 
....................             break; 
....................          case 24: 
....................             C2RXFUL2.rxful24=0; 
....................             break; 
....................          case 25: 
....................             C2RXFUL2.rxful25=0; 
....................             break; 
....................          case 26: 
....................             C2RXFUL2.rxful26=0; 
....................             break; 
....................          case 27: 
....................             C2RXFUL2.rxful27=0; 
....................             break; 
....................          case 28: 
....................             C2RXFUL2.rxful28=0; 
....................             break; 
....................          case 29: 
....................             C2RXFUL2.rxful29=0; 
....................             break; 
....................          case 30: 
....................             C2RXFUL2.rxful30=0; 
....................             break; 
....................          case 31: 
....................             C2RXFUL2.rxful31=0; 
....................             break; 
....................       } 
....................      #endif 
....................        
....................       #if CAN_DO_DEBUG 
....................           can_debug("\r\nCAN2_GETD(): BUFF=%U ID=%LX LEN=%U OVF=%U ", stat.buffer, id, len, stat.err_ovfl); 
....................           can_debug("FILT=%U RTR=%U EXT=%U INV=%U", stat.filthit, stat.rtr, stat.ext, stat.inv); 
....................           if ((len)&&(!stat.rtr)) { 
....................              can_debug("\r\n    DATA = "); 
....................              for (i=0;i<len;i++) { 
....................                can_debug("%X ",*data); 
....................                data++; 
....................              } 
....................           } 
....................           can_debug("\r\n"); 
....................        #endif  
....................         
....................        return(1); 
006A0:  MOV.B   #1,W0L
006A2:  MOV.B   W0L,0
....................    } 
.................... #endif 
....................  
.................... //////////////////////////////////////////////////////////////////////////////// 
.................... // 
.................... // can_get_id() 
.................... // can2_get_id() 
.................... // 
.................... // Returns the ID of the specified buffer. (The opposite of can_set_buffer_id()) 
.................... // This is used after receiving a message, to see which ID sent the message. 
.................... // 
.................... //   Parameters: 
.................... //     buffer - number of specified buffer 
.................... //      enumerated as TRB0-TRB7 and RB8-RB31 
.................... //     ext - Set to TRUE if this buffer uses an extended ID, FALSE if not 
.................... // 
.................... //   Returns: 
.................... //     The ID of the buffer 
.................... // 
.................... //////////////////////////////////////////////////////////////////////////////// 
.................... uint32_t can_get_id(BUFFER buffer, int1 ext) 
.................... { 
....................    uint32_t ret=0; 
....................    uint16_t *ptr; 
....................    uint16_t temp, temp1; 
....................     
....................    ptr=&ecan1_message_buffer[buffer][2]; 
....................        
....................    if (ext) 
....................    { 
....................       //EID 
....................       temp=((*ptr & 0xFC00) >> 10)& 0x3F; 
....................        
....................       ptr-=1; 
....................       temp|=((*ptr & 0x3FF) << 6); 
....................       temp1=(*ptr&0xC00)>>10; 
....................        
....................       //SID 
....................       ptr-=1; 
....................       temp1|=*ptr&0x1FFC; 
....................       ret=make32(temp1,temp); 
....................    } 
....................    else  
....................    { 
....................       //SID 
....................       ptr-=2; 
....................       ret=((*ptr & 0x1FFC) >> 2) & 0x7FF; 
....................    } 
....................     
....................    return(ret); 
.................... } 
....................  
.................... #if getenv("SFR_VALID:C2CTRL1") 
....................    uint32_t can2_get_id(BUFFER buffer, int1 ext) 
*
00280:  MOV     W5,[W15++]
00282:  CLR     106E
00284:  CLR     1070
....................    { 
....................       uint32_t ret=0; 
....................       uint16_t *ptr; 
....................       uint16_t temp, temp1; 
....................        
....................       ptr=&ecan2_message_buffer[buffer][2]; 
00286:  MOV.B   106C,W0L
00288:  CLR.B   1
0028A:  SL      W0,#4,W5
0028C:  ADD     W5,#4,W0
0028E:  MOV     #D200,W4
00290:  ADD     W0,W4,W0
00292:  MOV     W0,1072
....................           
....................       if (ext) 
00294:  CP0.B   106D
00296:  BRA     Z,2E0
....................       { 
....................          //EID 
....................          temp=((*ptr & 0xFC00) >> 10)& 0x3F; 
00298:  MOV     1072,W0
0029A:  MOV     [W0],W5
0029C:  MOV     #FC00,W0
0029E:  AND     W0,W5,W5
002A0:  LSR     W5,#A,W5
002A2:  MOV     W5,W4
002A4:  AND     #3F,W4
002A6:  MOV     W4,1074
....................           
....................          ptr-=1; 
002A8:  MOV     1072,W4
002AA:  SUB     W4,#2,W0
002AC:  MOV     W0,1072
....................          temp|=((*ptr & 0x3FF) << 6); 
002AE:  MOV     1072,W0
002B0:  MOV     [W0],W5
002B2:  AND     #3FF,W5
002B4:  SL      W5,#6,W0
002B6:  IOR     1074
....................          temp1=(*ptr&0xC00)>>10; 
002B8:  MOV     1072,W0
002BA:  MOV     [W0],W5
002BC:  MOV     #C00,W0
002BE:  AND     W0,W5,W5
002C0:  LSR     W5,#A,W0
002C2:  MOV     W0,1076
....................           
....................          //SID 
....................          ptr-=1; 
002C4:  MOV     1072,W4
002C6:  SUB     W4,#2,W0
002C8:  MOV     W0,1072
....................          temp1|=*ptr&0x1FFC; 
002CA:  MOV     1072,W0
002CC:  MOV     [W0],W5
002CE:  MOV     #1FFC,W0
002D0:  AND     W0,W5,W0
002D2:  IOR     1076
....................          ret=make32(temp1,temp); 
002D4:  PUSH    1076
002D6:  POP     1070
002D8:  PUSH    1074
002DA:  POP     106E
....................       } 
002DC:  GOTO    2F8
....................       else  
....................       { 
....................          //SID 
....................          ptr-=2; 
002E0:  MOV     1072,W4
002E2:  SUB     W4,#4,W0
002E4:  MOV     W0,1072
....................          ret=((*ptr & 0x1FFC) >> 2) & 0x7FF; 
002E6:  MOV     1072,W0
002E8:  MOV     [W0],W5
002EA:  MOV     #1FFC,W0
002EC:  AND     W0,W5,W5
002EE:  LSR     W5,#2,W5
002F0:  MOV     #7FF,W0
002F2:  AND     W0,W5,W0
002F4:  MOV     W0,106E
002F6:  CLR     1070
....................       } 
....................        
....................       return(ret); 
002F8:  MOV     106E,W0
002FA:  MOV     1070,W1
002FC:  MOV     [--W15],W5
002FE:  RETURN  
....................    } 
.................... #endif 
....................  
.................... //////////////////////////////////////////////////////////////////////////////// 
.................... // 
.................... // can_enable_b_transfer() 
.................... // can2_enable_b_transfer() 
.................... // 
.................... // Sets one of the 8 programmable buffers to be a transfer buffer, and sets the  
.................... // start of the FIFO buffer to be the first buffer after the highest buffer set  
.................... // as a transmit buffer.  
.................... // 
.................... // Parameters: 
.................... //      b - the buffer which is to become a transfer buffer 
.................... //       enumerated as TRB0-TRB7 
.................... // 
.................... //////////////////////////////////////////////////////////////////////////////// 
.................... void can_enable_b_transfer(BUFFER b) 
.................... { 
....................    switch(b) 
*
0101C:  MOV.B   1036,W0L
0101E:  CLR.B   1
01020:  XOR     #0,W0
01022:  BRA     Z,1042
01024:  XOR     #1,W0
01026:  BRA     Z,1048
01028:  XOR     #3,W0
0102A:  BRA     Z,104E
0102C:  XOR     #1,W0
0102E:  BRA     Z,1054
01030:  XOR     #7,W0
01032:  BRA     Z,105A
01034:  XOR     #1,W0
01036:  BRA     Z,1060
01038:  XOR     #3,W0
0103A:  BRA     Z,1066
0103C:  XOR     #1,W0
0103E:  BRA     Z,106C
01040:  BRA     1072
....................    { 
....................       case 0: 
....................          C1TR01CON.txenm=1; 
01042:  BSET.B  430.7
....................          break; 
01044:  GOTO    1072
....................       case 1: 
....................          C1TR01CON.txenn=1; 
01048:  BSET.B  431.7
....................          break; 
0104A:  GOTO    1072
....................       case 2: 
....................          C1TR23CON.txenm=1; 
0104E:  BSET.B  432.7
....................          break; 
01050:  GOTO    1072
....................       case 3: 
....................          C1TR23CON.txenn=1; 
01054:  BSET.B  433.7
....................          break; 
01056:  GOTO    1072
....................       case 4: 
....................          C1TR45CON.txenm=1; 
0105A:  BSET.B  434.7
....................          break; 
0105C:  GOTO    1072
....................       case 5: 
....................          C1TR45CON.txenn=1; 
01060:  BSET.B  435.7
....................          break; 
01062:  GOTO    1072
....................       case 6: 
....................          C1TR67CON.txenm=1; 
01066:  BSET.B  436.7
....................          break; 
01068:  GOTO    1072
....................       case 7: 
....................          C1TR67CON.txenn=1; 
0106C:  BSET.B  437.7
....................          break; 
0106E:  GOTO    1072
....................    } 
....................    if(C1TR67CON.txenn) 
01072:  BTSS.B  437.7
01074:  BRA     1084
....................       C1FCTRL.fsa=8; 
01076:  MOV     406,W4
01078:  AND     #3E0,W4
0107A:  IOR     #8,W4
0107C:  MOV.B   W4L,W0L
0107E:  MOV.B   W0L,406
01080:  GOTO    10FA
....................    else if (C1TR67CON.txenm) 
01084:  BTSS.B  436.7
01086:  BRA     1096
....................       C1FCTRL.fsa=7; 
01088:  MOV     406,W4
0108A:  AND     #3E0,W4
0108C:  IOR     #7,W4
0108E:  MOV.B   W4L,W0L
01090:  MOV.B   W0L,406
01092:  GOTO    10FA
....................    else if (C1TR45CON.txenn) 
01096:  BTSS.B  435.7
01098:  BRA     10A8
....................       C1FCTRL.fsa=6; 
0109A:  MOV     406,W4
0109C:  AND     #3E0,W4
0109E:  IOR     #6,W4
010A0:  MOV.B   W4L,W0L
010A2:  MOV.B   W0L,406
010A4:  GOTO    10FA
....................    else if (C1TR45CON.txenm) 
010A8:  BTSS.B  434.7
010AA:  BRA     10BA
....................       C1FCTRL.fsa=5; 
010AC:  MOV     406,W4
010AE:  AND     #3E0,W4
010B0:  IOR     #5,W4
010B2:  MOV.B   W4L,W0L
010B4:  MOV.B   W0L,406
010B6:  GOTO    10FA
....................    else if (C1TR23CON.txenn) 
010BA:  BTSS.B  433.7
010BC:  BRA     10CC
....................       C1FCTRL.fsa=4; 
010BE:  MOV     406,W4
010C0:  AND     #3E0,W4
010C2:  IOR     #4,W4
010C4:  MOV.B   W4L,W0L
010C6:  MOV.B   W0L,406
010C8:  GOTO    10FA
....................    else if (C1TR23CON.txenm) 
010CC:  BTSS.B  432.7
010CE:  BRA     10DE
....................       C1FCTRL.fsa=3; 
010D0:  MOV     406,W4
010D2:  AND     #3E0,W4
010D4:  IOR     #3,W4
010D6:  MOV.B   W4L,W0L
010D8:  MOV.B   W0L,406
010DA:  GOTO    10FA
....................    else if (C1TR01CON.txenn) 
010DE:  BTSS.B  431.7
010E0:  BRA     10F0
....................       C1FCTRL.fsa=2; 
010E2:  MOV     406,W4
010E4:  AND     #3E0,W4
010E6:  IOR     #2,W4
010E8:  MOV.B   W4L,W0L
010EA:  MOV.B   W0L,406
010EC:  GOTO    10FA
....................    else  
....................       C1FCTRL.fsa=1;    
010F0:  MOV     406,W4
010F2:  AND     #3E0,W4
010F4:  IOR     #1,W4
010F6:  MOV.B   W4L,W0L
010F8:  MOV.B   W0L,406
010FA:  RETURN  
.................... } 
....................  
.................... #if getenv("SFR_VALID:C2CTRL1") 
....................    void can2_enable_b_transfer(BUFFER b) 
....................    { 
....................       switch(b) 
010FC:  MOV.B   1036,W0L
010FE:  CLR.B   1
01100:  XOR     #0,W0
01102:  BRA     Z,1122
01104:  XOR     #1,W0
01106:  BRA     Z,1128
01108:  XOR     #3,W0
0110A:  BRA     Z,112E
0110C:  XOR     #1,W0
0110E:  BRA     Z,1134
01110:  XOR     #7,W0
01112:  BRA     Z,113A
01114:  XOR     #1,W0
01116:  BRA     Z,1140
01118:  XOR     #3,W0
0111A:  BRA     Z,1146
0111C:  XOR     #1,W0
0111E:  BRA     Z,114C
01120:  BRA     1152
....................       { 
....................          case 0: 
....................             C2TR01CON.txenm=1; 
01122:  BSET.B  530.7
....................             break; 
01124:  GOTO    1152
....................          case 1: 
....................             C2TR01CON.txenn=1; 
01128:  BSET.B  531.7
....................             break; 
0112A:  GOTO    1152
....................          case 2: 
....................             C2TR23CON.txenm=1; 
0112E:  BSET.B  532.7
....................             break; 
01130:  GOTO    1152
....................          case 3: 
....................             C2TR23CON.txenn=1; 
01134:  BSET.B  533.7
....................             break; 
01136:  GOTO    1152
....................          case 4: 
....................             C2TR45CON.txenm=1; 
0113A:  BSET.B  534.7
....................             break; 
0113C:  GOTO    1152
....................          case 5: 
....................             C2TR45CON.txenn=1; 
01140:  BSET.B  535.7
....................             break; 
01142:  GOTO    1152
....................          case 6: 
....................             C2TR67CON.txenm=1; 
01146:  BSET.B  536.7
....................             break; 
01148:  GOTO    1152
....................          case 7: 
....................             C2TR67CON.txenn=1; 
0114C:  BSET.B  537.7
....................             break; 
0114E:  GOTO    1152
....................       } 
....................       if(C2TR67CON.txenn) 
01152:  BTSS.B  537.7
01154:  BRA     1164
....................          C2FCTRL.fsa=8; 
01156:  MOV     506,W4
01158:  AND     #3E0,W4
0115A:  IOR     #8,W4
0115C:  MOV.B   W4L,W0L
0115E:  MOV.B   W0L,506
01160:  GOTO    11DA
....................       else if (C2TR67CON.txenm) 
01164:  BTSS.B  536.7
01166:  BRA     1176
....................          C2FCTRL.fsa=7; 
01168:  MOV     506,W4
0116A:  AND     #3E0,W4
0116C:  IOR     #7,W4
0116E:  MOV.B   W4L,W0L
01170:  MOV.B   W0L,506
01172:  GOTO    11DA
....................       else if (C2TR45CON.txenn) 
01176:  BTSS.B  535.7
01178:  BRA     1188
....................          C2FCTRL.fsa=6; 
0117A:  MOV     506,W4
0117C:  AND     #3E0,W4
0117E:  IOR     #6,W4
01180:  MOV.B   W4L,W0L
01182:  MOV.B   W0L,506
01184:  GOTO    11DA
....................       else if (C2TR45CON.txenm) 
01188:  BTSS.B  534.7
0118A:  BRA     119A
....................          C2FCTRL.fsa=5; 
0118C:  MOV     506,W4
0118E:  AND     #3E0,W4
01190:  IOR     #5,W4
01192:  MOV.B   W4L,W0L
01194:  MOV.B   W0L,506
01196:  GOTO    11DA
....................       else if (C2TR23CON.txenn) 
0119A:  BTSS.B  533.7
0119C:  BRA     11AC
....................          C2FCTRL.fsa=4; 
0119E:  MOV     506,W4
011A0:  AND     #3E0,W4
011A2:  IOR     #4,W4
011A4:  MOV.B   W4L,W0L
011A6:  MOV.B   W0L,506
011A8:  GOTO    11DA
....................       else if (C2TR23CON.txenm) 
011AC:  BTSS.B  532.7
011AE:  BRA     11BE
....................          C2FCTRL.fsa=3; 
011B0:  MOV     506,W4
011B2:  AND     #3E0,W4
011B4:  IOR     #3,W4
011B6:  MOV.B   W4L,W0L
011B8:  MOV.B   W0L,506
011BA:  GOTO    11DA
....................       else if (C2TR01CON.txenn) 
011BE:  BTSS.B  531.7
011C0:  BRA     11D0
....................          C2FCTRL.fsa=2; 
011C2:  MOV     506,W4
011C4:  AND     #3E0,W4
011C6:  IOR     #2,W4
011C8:  MOV.B   W4L,W0L
011CA:  MOV.B   W0L,506
011CC:  GOTO    11DA
....................       else  
....................          C2FCTRL.fsa=1;    
011D0:  MOV     506,W4
011D2:  AND     #3E0,W4
011D4:  IOR     #1,W4
011D6:  MOV.B   W4L,W0L
011D8:  MOV.B   W0L,506
011DA:  RETURN  
....................    } 
.................... #endif 
....................  
.................... //////////////////////////////////////////////////////////////////////////////// 
.................... // 
.................... // can_enable_b_receiver() 
.................... // can2_enable_b_receiver() 
.................... // 
.................... // Sets one of the 8 programmable buffers to be a receiver buffer, and sets the  
.................... // start of the FIFO buffer to be the first buffer after the highest buffer set  
.................... // as a transmit buffer. 
.................... // 
.................... // Parameters: 
.................... //       b - the buffer which is to become a receiver buffer 
.................... //        enumerated as TRB0-TRB7 
.................... // 
.................... //////////////////////////////////////////////////////////////////////////////// 
.................... void can_enable_b_receiver(BUFFER b) 
.................... { 
....................    switch(b) 
....................    { 
....................       case 0: 
....................          C1TR01CON.txenm=0; 
....................          break; 
....................       case 1: 
....................          C1TR01CON.txenn=0; 
....................          break; 
....................       case 2: 
....................          C1TR23CON.txenm=0; 
....................          break; 
....................       case 3: 
....................          C1TR23CON.txenn=0; 
....................          break; 
....................       case 4: 
....................          C1TR45CON.txenm=0; 
....................          break; 
....................       case 5: 
....................          C1TR45CON.txenn=0; 
....................          break; 
....................       case 6: 
....................          C1TR67CON.txenm=0; 
....................          break; 
....................       case 7: 
....................          C1TR67CON.txenn=0; 
....................          break; 
....................    } 
....................    if(C1TR67CON.txenn) 
....................       C1FCTRL.fsa=8; 
....................    else if (C1TR67CON.txenm) 
....................       C1FCTRL.fsa=7; 
....................    else if (C1TR45CON.txenn) 
....................       C1FCTRL.fsa=6; 
....................    else if (C1TR45CON.txenm) 
....................       C1FCTRL.fsa=5; 
....................    else if (C1TR23CON.txenn) 
....................       C1FCTRL.fsa=4; 
....................    else if (C1TR23CON.txenm) 
....................       C1FCTRL.fsa=3; 
....................    else if (C1TR01CON.txenn) 
....................       C1FCTRL.fsa=2; 
....................    else if (C1TR01CON.txenm) 
....................       C1FCTRL.fsa=1; 
....................    else 
....................       C1FCTRL.fsa=0; 
.................... } 
....................  
.................... #if getenv("SFR_VALID:C2CTRL1") 
....................    void can2_enable_b_receiver(BUFFER b) 
....................    { 
....................       switch(b) 
011DC:  MOV.B   1036,W0L
011DE:  CLR.B   1
011E0:  XOR     #0,W0
011E2:  BRA     Z,1202
011E4:  XOR     #1,W0
011E6:  BRA     Z,1208
011E8:  XOR     #3,W0
011EA:  BRA     Z,120E
011EC:  XOR     #1,W0
011EE:  BRA     Z,1214
011F0:  XOR     #7,W0
011F2:  BRA     Z,121A
011F4:  XOR     #1,W0
011F6:  BRA     Z,1220
011F8:  XOR     #3,W0
011FA:  BRA     Z,1226
011FC:  XOR     #1,W0
011FE:  BRA     Z,122C
01200:  BRA     1232
....................       { 
....................          case 0: 
....................             C2TR01CON.txenm=0; 
01202:  BCLR.B  530.7
....................             break; 
01204:  GOTO    1232
....................          case 1: 
....................             C2TR01CON.txenn=0; 
01208:  BCLR.B  531.7
....................             break; 
0120A:  GOTO    1232
....................          case 2: 
....................             C2TR23CON.txenm=0; 
0120E:  BCLR.B  532.7
....................             break; 
01210:  GOTO    1232
....................          case 3: 
....................             C2TR23CON.txenn=0; 
01214:  BCLR.B  533.7
....................             break; 
01216:  GOTO    1232
....................          case 4: 
....................             C2TR45CON.txenm=0; 
0121A:  BCLR.B  534.7
....................             break; 
0121C:  GOTO    1232
....................          case 5: 
....................             C2TR45CON.txenn=0; 
01220:  BCLR.B  535.7
....................             break; 
01222:  GOTO    1232
....................          case 6: 
....................             C2TR67CON.txenm=0; 
01226:  BCLR.B  536.7
....................             break; 
01228:  GOTO    1232
....................          case 7: 
....................             C2TR67CON.txenn=0; 
0122C:  BCLR.B  537.7
....................             break; 
0122E:  GOTO    1232
....................       } 
....................       if(C2TR67CON.txenn) 
01232:  BTSS.B  537.7
01234:  BRA     1244
....................          C2FCTRL.fsa=8; 
01236:  MOV     506,W4
01238:  AND     #3E0,W4
0123A:  IOR     #8,W4
0123C:  MOV.B   W4L,W0L
0123E:  MOV.B   W0L,506
01240:  GOTO    12CC
....................       else if (C2TR67CON.txenm) 
01244:  BTSS.B  536.7
01246:  BRA     1256
....................          C2FCTRL.fsa=7; 
01248:  MOV     506,W4
0124A:  AND     #3E0,W4
0124C:  IOR     #7,W4
0124E:  MOV.B   W4L,W0L
01250:  MOV.B   W0L,506
01252:  GOTO    12CC
....................       else if (C2TR45CON.txenn) 
01256:  BTSS.B  535.7
01258:  BRA     1268
....................          C2FCTRL.fsa=6; 
0125A:  MOV     506,W4
0125C:  AND     #3E0,W4
0125E:  IOR     #6,W4
01260:  MOV.B   W4L,W0L
01262:  MOV.B   W0L,506
01264:  GOTO    12CC
....................       else if (C2TR45CON.txenm) 
01268:  BTSS.B  534.7
0126A:  BRA     127A
....................          C2FCTRL.fsa=5; 
0126C:  MOV     506,W4
0126E:  AND     #3E0,W4
01270:  IOR     #5,W4
01272:  MOV.B   W4L,W0L
01274:  MOV.B   W0L,506
01276:  GOTO    12CC
....................       else if (C2TR23CON.txenn) 
0127A:  BTSS.B  533.7
0127C:  BRA     128C
....................          C2FCTRL.fsa=4; 
0127E:  MOV     506,W4
01280:  AND     #3E0,W4
01282:  IOR     #4,W4
01284:  MOV.B   W4L,W0L
01286:  MOV.B   W0L,506
01288:  GOTO    12CC
....................       else if (C2TR23CON.txenm) 
0128C:  BTSS.B  532.7
0128E:  BRA     129E
....................          C2FCTRL.fsa=3; 
01290:  MOV     506,W4
01292:  AND     #3E0,W4
01294:  IOR     #3,W4
01296:  MOV.B   W4L,W0L
01298:  MOV.B   W0L,506
0129A:  GOTO    12CC
....................       else if (C2TR01CON.txenn) 
0129E:  BTSS.B  531.7
012A0:  BRA     12B0
....................          C2FCTRL.fsa=2; 
012A2:  MOV     506,W4
012A4:  AND     #3E0,W4
012A6:  IOR     #2,W4
012A8:  MOV.B   W4L,W0L
012AA:  MOV.B   W0L,506
012AC:  GOTO    12CC
....................       else if (C2TR01CON.txenm) 
012B0:  BTSS.B  530.7
012B2:  BRA     12C2
....................          C2FCTRL.fsa=1; 
012B4:  MOV     506,W4
012B6:  AND     #3E0,W4
012B8:  IOR     #1,W4
012BA:  MOV.B   W4L,W0L
012BC:  MOV.B   W0L,506
012BE:  GOTO    12CC
....................       else 
....................          C2FCTRL.fsa=0; 
012C2:  MOV     506,W4
012C4:  AND     #3E0,W4
012C6:  IOR     #0,W4
012C8:  MOV.B   W4L,W0L
012CA:  MOV.B   W0L,506
012CC:  RETURN  
....................    } 
.................... #endif 
....................  
.................... //////////////////////////////////////////////////////////////////////////////// 
.................... // 
.................... // can_enable_rtr() 
.................... // can2_enable_rtr() 
.................... // 
.................... // Sets the desired programmable buffer to be used as an Auto-rtr buffer. 
.................... // 
.................... // Parameters 
.................... //       b - the programmable buffer to be set to Auto-rtr mode 
.................... //       enumerated as TRB0-TRB7 
.................... // 
.................... //////////////////////////////////////////////////////////////////////////////// 
.................... void can_enable_rtr(BUFFER b) 
.................... { 
....................    switch(b) 
....................    { 
....................       case 0: 
....................          C1TR01CON.rtrenm=1; 
....................          break; 
....................       case 1: 
....................          C1TR01CON.rtrenn=1; 
....................          break; 
....................       case 2: 
....................          C1TR23CON.rtrenm=1; 
....................          break; 
....................       case 3: 
....................          C1TR23CON.rtrenn=1; 
....................          break; 
....................       case 4: 
....................          C1TR45CON.rtrenm=1; 
....................          break; 
....................       case 5: 
....................          C1TR45CON.rtrenn=1; 
....................          break; 
....................       case 6: 
....................          C1TR67CON.rtrenm=1; 
....................          break; 
....................       case 7: 
....................          C1TR67CON.rtrenn=1; 
....................          break; 
....................    } 
.................... } 
....................  
.................... #if getenv("SFR_VALID:C2CTRL1") 
....................    void can2_enable_rtr(BUFFER b) 
....................    { 
....................       switch(b) 
....................       { 
....................          case 0: 
....................             C2TR01CON.rtrenm=1; 
....................             break; 
....................          case 1: 
....................             C2TR01CON.rtrenn=1; 
....................             break; 
....................          case 2: 
....................             C2TR23CON.rtrenm=1; 
....................             break; 
....................          case 3: 
....................             C2TR23CON.rtrenn=1; 
....................             break; 
....................          case 4: 
....................             C2TR45CON.rtrenm=1; 
....................             break; 
....................          case 5: 
....................             C2TR45CON.rtrenn=1; 
....................             break; 
....................          case 6: 
....................             C2TR67CON.rtrenm=1; 
....................             break; 
....................          case 7: 
....................             C2TR67CON.rtrenn=1; 
....................             break; 
....................       } 
....................    } 
.................... #endif 
....................  
.................... //////////////////////////////////////////////////////////////////////////////// 
.................... // 
.................... // can_disable_rtr() 
.................... // can2_disable_rtr() 
.................... // 
.................... // Disables specified programmable buffer from being used as Auto-rtr buffer. 
.................... // 
.................... // Parameters: 
.................... //      b - the programmable buffer to be disabled from Auto-rtr mode 
.................... //       enumerated as TRB0-TRB7 
.................... // 
.................... //////////////////////////////////////////////////////////////////////////////// 
.................... void can_disable_rtr(BUFFER b) 
.................... { 
....................    switch(b) 
....................    { 
....................       case 0: 
....................          C1TR01CON.rtrenm=0; 
....................          break; 
....................       case 1: 
....................          C1TR01CON.rtrenn=0; 
....................          break; 
....................       case 2: 
....................          C1TR23CON.rtrenm=0; 
....................          break; 
....................       case 3: 
....................          C1TR23CON.rtrenn=0; 
....................          break; 
....................       case 4: 
....................          C1TR45CON.rtrenm=0; 
....................          break; 
....................       case 5: 
....................          C1TR45CON.rtrenn=0; 
....................          break; 
....................       case 6: 
....................          C1TR67CON.rtrenm=0; 
....................          break; 
....................       case 7: 
....................          C1TR67CON.rtrenn=0; 
....................          break; 
....................    } 
.................... } 
....................  
.................... #if getenv("SFR_VALID:C2CTRL1") 
....................    void can2_disable_rtr(BUFFER b) 
....................    { 
....................       switch(b) 
....................       { 
....................          case 0: 
....................             C2TR01CON.rtrenm=0; 
....................             break; 
....................          case 1: 
....................             C2TR01CON.rtrenn=0; 
....................             break; 
....................          case 2: 
....................             C2TR23CON.rtrenm=0; 
....................             break; 
....................          case 3: 
....................             C2TR23CON.rtrenn=0; 
....................             break; 
....................          case 4: 
....................             C2TR45CON.rtrenm=0; 
....................             break; 
....................          case 5: 
....................             C2TR45CON.rtrenn=0; 
....................             break; 
....................          case 6: 
....................             C2TR67CON.rtrenm=0; 
....................             break; 
....................          case 7: 
....................             C2TR67CON.rtrenn=0; 
....................             break; 
....................       } 
....................    } 
.................... #endif 
....................  
.................... //////////////////////////////////////////////////////////////////////////////// 
.................... // 
.................... // can_load_rtr() 
.................... // can2_load_rtr() 
.................... // 
.................... //   Loads a SINGLE b buffer with data to be sent on the occurrence of an rtr. 
.................... // 
.................... // Parameters: 
.................... // 
.................... //      b - The programmable buffer to be filled 
.................... //       enumerated as TRB0-TRB7 
.................... //      data - the address of the first data byte 
.................... //      len - the number of data bytes to be copied 
.................... // 
.................... // Returns: 
.................... //      void 
.................... // 
.................... //   Note, the programmer must set the appropriate rtr registers in order for the 
.................... //         rtr function to work.  This function does not set any of those 
.................... //         registers.  For example, to enable TRB0 as an Auto-rtr buffer, the 
.................... //         functions: 
.................... // 
.................... //         can_enable_b_transfer(TRB0); 
.................... //         can_enable_rtr(TRB0); 
.................... //         function to link acceptance filter to TRB0 
.................... // 
.................... //         needs to be called. 
.................... // 
.................... //////////////////////////////////////////////////////////////////////////////// 
.................... void can_load_rtr (BUFFER b, uint8_t *data, uint8_t len) 
.................... { 
....................    uint16_t i; 
....................    uint16_t *ptr; 
....................     
....................    curmode=C1CTRL1.opmode; 
....................     
....................    can_set_mode(CAN_OP_CONFIG); 
....................     
....................    ptr=&ecan1_message_buffer[b][2]; 
....................     
....................    *ptr&=0xFFF0; 
....................    *ptr|=len; 
....................     
....................    for(i=0;i<len;i+=2) 
....................    { 
....................       ptr+=1; 
....................       if (i+1==len) 
....................          *ptr=make16(0,data[i]); 
....................       else 
....................          *ptr=make16(data[i+1],data[i]); 
....................    } 
....................     
....................    can_set_mode(curmode); 
.................... } 
....................  
.................... #if getenv("SFR_VALID:C2CTRL1") 
....................    void can2_load_rtr (BUFFER b, uint8_t *data, uint8_t len) 
....................    { 
....................       uint16_t i; 
....................       uint16_t *ptr; 
....................        
....................       curmode=C2CTRL1.opmode; 
....................        
....................       can2_set_mode(CAN_OP_CONFIG); 
....................        
....................       ptr=&ecan2_message_buffer[b][2]; 
....................        
....................       *ptr&=0xFFF0; 
....................       *ptr|=len; 
....................        
....................       for(i=0;i<len;i+=2) 
....................       { 
....................          ptr+=1; 
....................          if (i+1==len) 
....................             *ptr=make16(0,data[i]); 
....................          else 
....................             *ptr=make16(data[i+1],data[i]); 
....................       } 
....................        
....................       can2_set_mode(curmode); 
....................    } 
.................... #endif 
....................  
.................... //////////////////////////////////////////////////////////////////////////////// 
.................... // 
.................... // can_fifo_getd() 
.................... // can2_fifo_getd() 
.................... // 
.................... //    Retrieves data in FIFO mode 
.................... // 
.................... // Parameters: 
.................... //      id - The ID of the sender 
.................... //      data - Address of the array to store the data in 
.................... //      len - number of data bytes to read 
.................... //      stat - status structure to return information about the receive register 
.................... // 
.................... // Returns: 
.................... //      int1 - TRUE if there was data in the buffer, FALSE if there wasn't 
.................... // 
.................... //////////////////////////////////////////////////////////////////////////////// 
.................... int1 can_fifo_getd(uint32_t &id, uint8_t *data, uint8_t &len, struct rx_stat &stat ) 
.................... { 
....................    uint16_t i, temp1; 
....................    uint16_t *ptr; 
....................    int1 temp; 
....................     
....................    temp1=C1FIFO.fnrb; 
....................     
....................    switch(temp1) 
....................    { 
....................       case 0: 
....................          if(!C1RXFUL1.rxful0) 
....................             return(0); 
....................          else { 
....................             stat.err_ovfl=C1RXOVF1.rxovf0; 
....................             C1RXOVF1.rxovf0=0; 
....................          } 
....................          break; 
....................       case 1: 
....................          if(!C1RXFUL1.rxful1) 
....................             return(0); 
....................          else { 
....................             stat.err_ovfl=C1RXOVF1.rxovf1; 
....................             C1RXOVF1.rxovf1=0; 
....................          } 
....................          break; 
....................       case 2: 
....................          if(!C1RXFUL1.rxful2) 
....................             return(0); 
....................          else { 
....................             stat.err_ovfl=C1RXOVF1.rxovf2; 
....................             C1RXOVF1.rxovf2=0; 
....................          } 
....................          break; 
....................       case 3: 
....................          if(!C1RXFUL1.rxful3) 
....................             return(0); 
....................          else { 
....................             stat.err_ovfl=C1RXOVF1.rxovf3; 
....................             C1RXOVF1.rxovf3=0; 
....................          } 
....................          break; 
....................       case 4: 
....................          if(!C1RXFUL1.rxful4) 
....................             return(0); 
....................          else { 
....................             stat.err_ovfl=C1RXOVF1.rxovf4; 
....................             C1RXOVF1.rxovf4=0; 
....................          } 
....................          break; 
....................       case 5: 
....................          if(!C1RXFUL1.rxful5) 
....................             return(0); 
....................          else { 
....................             stat.err_ovfl=C1RXOVF1.rxovf5; 
....................             C1RXOVF1.rxovf5=0; 
....................          } 
....................          break; 
....................       case 6: 
....................          if(!C1RXFUL1.rxful6) 
....................             return(0); 
....................          else { 
....................             stat.err_ovfl=C1RXOVF1.rxovf6; 
....................             C1RXOVF1.rxovf6=0; 
....................          } 
....................          break; 
....................       case 7: 
....................          if(!C1RXFUL1.rxful7) 
....................             return(0); 
....................          else { 
....................             stat.err_ovfl=C1RXOVF1.rxovf7; 
....................             C1RXOVF1.rxovf7=0; 
....................          } 
....................          break; 
....................       case 8: 
....................          if(!C1RXFUL1.rxful8) 
....................             return(0); 
....................          else { 
....................             stat.err_ovfl=C1RXOVF1.rxovf8; 
....................             C1RXOVF1.rxovf8=0; 
....................          } 
....................          break; 
....................       case 9: 
....................          if(!C1RXFUL1.rxful9) 
....................             return(0); 
....................          else { 
....................             stat.err_ovfl=C1RXOVF1.rxovf9; 
....................             C1RXOVF1.rxovf9=0; 
....................          } 
....................          break; 
....................       case 10: 
....................          if(!C1RXFUL1.rxful10) 
....................             return(0); 
....................          else { 
....................             stat.err_ovfl=C1RXOVF1.rxovf10; 
....................             C1RXOVF1.rxovf10=0; 
....................          } 
....................          break; 
....................       case 11: 
....................          if(!C1RXFUL1.rxful11) 
....................             return(0); 
....................          else { 
....................             stat.err_ovfl=C1RXOVF1.rxovf11; 
....................             C1RXOVF1.rxovf11=0; 
....................          } 
....................          break; 
....................       case 12: 
....................          if(!C1RXFUL1.rxful12) 
....................             return(0); 
....................          else { 
....................             stat.err_ovfl=C1RXOVF1.rxovf12; 
....................             C1RXOVF1.rxovf12=0; 
....................          } 
....................          break; 
....................       case 13: 
....................          if(!C1RXFUL1.rxful13) 
....................             return(0); 
....................          else { 
....................             stat.err_ovfl=C1RXOVF1.rxovf13; 
....................             C1RXOVF1.rxovf13=0; 
....................          } 
....................          break; 
....................       case 14: 
....................          if(!C1RXFUL1.rxful14) 
....................             return(0); 
....................          else { 
....................             stat.err_ovfl=C1RXOVF1.rxovf14; 
....................             C1RXOVF1.rxovf14=0; 
....................          } 
....................          break; 
....................       case 15: 
....................          if(!C1RXFUL1.rxful15) 
....................             return(0); 
....................          else { 
....................             stat.err_ovfl=C1RXOVF1.rxovf15; 
....................             C1RXOVF1.rxovf15=0; 
....................          } 
....................          break; 
....................       case 16: 
....................          if(!C1RXFUL2.rxful16) 
....................             return(0); 
....................          else { 
....................             stat.err_ovfl=C1RXOVF2.rxovf16; 
....................             C1RXOVF2.rxovf16=0; 
....................          } 
....................          break; 
....................       case 17: 
....................          if(!C1RXFUL2.rxful17) 
....................             return(0); 
....................          else { 
....................             stat.err_ovfl=C1RXOVF2.rxovf17; 
....................             C1RXOVF2.rxovf17=0; 
....................          } 
....................          break; 
....................       case 18: 
....................          if(!C1RXFUL2.rxful18) 
....................             return(0); 
....................          else { 
....................             stat.err_ovfl=C1RXOVF2.rxovf18; 
....................             C1RXOVF2.rxovf18=0; 
....................          } 
....................          break; 
....................       case 19: 
....................          if(!C1RXFUL2.rxful19) 
....................             return(0); 
....................          else { 
....................             stat.err_ovfl=C1RXOVF2.rxovf19; 
....................             C1RXOVF2.rxovf19=0; 
....................          } 
....................          break; 
....................       case 20: 
....................          if(!C1RXFUL2.rxful20) 
....................             return(0); 
....................          else { 
....................             stat.err_ovfl=C1RXOVF2.rxovf20; 
....................             C1RXOVF2.rxovf20=0; 
....................          } 
....................          break; 
....................       case 21: 
....................          if(!C1RXFUL2.rxful21) 
....................             return(0); 
....................          else { 
....................             stat.err_ovfl=C1RXOVF2.rxovf21; 
....................             C1RXOVF2.rxovf21=0; 
....................          } 
....................          break; 
....................       case 22: 
....................          if(!C1RXFUL2.rxful22) 
....................             return(0); 
....................          else { 
....................             stat.err_ovfl=C1RXOVF2.rxovf22; 
....................             C1RXOVF2.rxovf22=0; 
....................          } 
....................          break; 
....................       case 23: 
....................          if(!C1RXFUL2.rxful23) 
....................             return(0); 
....................          else { 
....................             stat.err_ovfl=C1RXOVF2.rxovf23; 
....................             C1RXOVF2.rxovf23=0; 
....................          } 
....................          break; 
....................       case 24: 
....................          if(!C1RXFUL2.rxful24) 
....................             return(0); 
....................          else { 
....................             stat.err_ovfl=C1RXOVF2.rxovf24; 
....................             C1RXOVF2.rxovf24=0; 
....................          } 
....................          break; 
....................       case 25: 
....................          if(!C1RXFUL2.rxful25) 
....................             return(0); 
....................          else { 
....................             stat.err_ovfl=C1RXOVF2.rxovf25; 
....................             C1RXOVF2.rxovf25=0; 
....................          } 
....................          break; 
....................       case 26: 
....................          if(!C1RXFUL2.rxful26) 
....................             return(0); 
....................          else { 
....................             stat.err_ovfl=C1RXOVF2.rxovf26; 
....................             C1RXOVF2.rxovf26=0; 
....................          } 
....................          break; 
....................       case 27: 
....................          if(!C1RXFUL2.rxful27) 
....................             return(0); 
....................          else { 
....................             stat.err_ovfl=C1RXOVF2.rxovf27; 
....................             C1RXOVF2.rxovf27=0; 
....................          } 
....................          break; 
....................       case 28: 
....................          if(!C1RXFUL2.rxful28) 
....................             return(0); 
....................          else { 
....................             stat.err_ovfl=C1RXOVF2.rxovf28; 
....................             C1RXOVF2.rxovf28=0; 
....................          } 
....................          break; 
....................       case 29: 
....................          if(!C1RXFUL2.rxful29) 
....................             return(0); 
....................          else { 
....................             stat.err_ovfl=C1RXOVF2.rxovf29; 
....................             C1RXOVF2.rxovf29=0; 
....................          } 
....................          break; 
....................       case 30: 
....................          if(!C1RXFUL2.rxful30) 
....................             return(0); 
....................          else { 
....................             stat.err_ovfl=C1RXOVF2.rxovf30; 
....................             C1RXOVF2.rxovf30=0; 
....................          } 
....................          break; 
....................       case 31: 
....................          if(!C1RXFUL2.rxful31) 
....................             return(0); 
....................          else { 
....................             stat.err_ovfl=C1RXOVF2.rxovf31; 
....................             C1RXOVF2.rxovf31=0; 
....................          } 
....................          break; 
....................    } 
....................     
....................    C1INTF.rbif=0; 
....................     
....................    stat.buffer=C1FIFO.fnrb; 
....................     
....................    ptr=&ecan1_message_buffer[stat.buffer][0]; 
....................    stat.ext=(*ptr & 0x1); 
....................    temp=(*ptr & 0x1); 
....................       
....................    ptr+=2; 
....................    len=(*ptr & 0xF); 
....................    stat.rtr=((make8(*ptr,1) & 0x2) >> 1); 
....................     
....................    ptr+=5; 
....................    stat.filthit=(make8(*ptr,1) & 0x1F); 
....................        
....................    id=can_get_id(stat.buffer,temp); 
....................     
....................    ptr=&ecan1_message_buffer[stat.buffer][3]; 
....................    for(i=0;i<len;i+=2) 
....................    { 
....................       data[i]=make8(*ptr,0); 
....................       if (i+1!=len) 
....................          data[i+1]=make8(*ptr,1); 
....................       ptr++; 
....................    } 
....................     
....................    stat.inv=C1INTF.ivrif; 
....................    C1INTF.ivrif=0; 
....................     
....................   #ifndef DONT_USE_ERRATA_WORKAROUND 
....................    //This change was made to workaround an errata the dsPIC33EV family has 
....................    if(stat.buffer < 16) 
....................       (uint16_t)C1RXFUL1 = ~(0x0001 << (uint16_t)stat.buffer); 
....................    else 
....................       (uint16_t)C1RXFUL2 = ~(0x0001 << ((uint16_t)stat.buffer - 16)); 
....................   #else 
....................    switch(stat.buffer) 
....................    { 
....................       case 0: 
....................          C1RXFUL1.rxful0=0; 
....................          break; 
....................       case 1: 
....................          C1RXFUL1.rxful1=0; 
....................          break; 
....................       case 2: 
....................          C1RXFUL1.rxful2=0; 
....................          break; 
....................       case 3: 
....................          C1RXFUL1.rxful3=0; 
....................          break; 
....................       case 4: 
....................          C1RXFUL1.rxful4=0; 
....................          break; 
....................       case 5: 
....................          C1RXFUL1.rxful5=0; 
....................          break; 
....................       case 6: 
....................          C1RXFUL1.rxful6=0; 
....................          break; 
....................       case 7: 
....................          C1RXFUL1.rxful7=0; 
....................          break; 
....................       case 8: 
....................          C1RXFUL1.rxful8=0; 
....................          break; 
....................       case 9: 
....................          C1RXFUL1.rxful9=0; 
....................          break; 
....................       case 10: 
....................          C1RXFUL1.rxful10=0; 
....................          break; 
....................       case 11: 
....................          C1RXFUL1.rxful11=0; 
....................          break; 
....................       case 12: 
....................          C1RXFUL1.rxful12=0; 
....................          break; 
....................       case 13: 
....................          C1RXFUL1.rxful13=0; 
....................          break; 
....................       case 14: 
....................          C1RXFUL1.rxful14=0; 
....................          break; 
....................       case 15: 
....................          C1RXFUL1.rxful15=0; 
....................          break; 
....................       case 16: 
....................          C1RXFUL2.rxful16=0; 
....................          break; 
....................       case 17: 
....................          C1RXFUL2.rxful17=0; 
....................          break; 
....................       case 18: 
....................          C1RXFUL2.rxful18=0; 
....................          break; 
....................       case 19: 
....................          C1RXFUL2.rxful19=0; 
....................          break; 
....................       case 20: 
....................          C1RXFUL2.rxful20=0; 
....................          break; 
....................       case 21: 
....................          C1RXFUL2.rxful21=0; 
....................          break; 
....................       case 22: 
....................          C1RXFUL2.rxful22=0; 
....................          break; 
....................       case 23: 
....................          C1RXFUL2.rxful23=0; 
....................          break; 
....................       case 24: 
....................          C1RXFUL2.rxful24=0; 
....................          break; 
....................       case 25: 
....................          C1RXFUL2.rxful25=0; 
....................          break; 
....................       case 26: 
....................          C1RXFUL2.rxful26=0; 
....................          break; 
....................       case 27: 
....................          C1RXFUL2.rxful27=0; 
....................          break; 
....................       case 28: 
....................          C1RXFUL2.rxful28=0; 
....................          break; 
....................       case 29: 
....................          C1RXFUL2.rxful29=0; 
....................          break; 
....................       case 30: 
....................          C1RXFUL2.rxful30=0; 
....................          break; 
....................       case 31: 
....................          C1RXFUL2.rxful31=0; 
....................          break; 
....................    } 
....................   #endif 
....................     
....................    return(1); 
.................... } 
....................  
.................... #if getenv("SFR_VALID:C2CTRL1") 
....................    int1 can2_fifo_getd(uint32_t &id, uint8_t *data, uint8_t &len, struct rx_stat &stat ) 
....................    { 
....................       uint16_t i, temp1; 
....................       uint16_t *ptr; 
....................       int1 temp; 
....................        
....................       temp1=C2FIFO.fnrb; 
....................        
....................       switch(temp1) 
....................       { 
....................          case 0: 
....................             if(!C2RXFUL1.rxful0) 
....................                return(0); 
....................             else { 
....................                stat.err_ovfl=C2RXOVF1.rxovf0; 
....................                C2RXOVF1.rxovf0=0; 
....................             } 
....................             break; 
....................          case 1: 
....................             if(!C2RXFUL1.rxful1) 
....................                return(0); 
....................             else { 
....................                stat.err_ovfl=C2RXOVF1.rxovf1; 
....................                C2RXOVF1.rxovf1=0; 
....................             } 
....................             break; 
....................          case 2: 
....................             if(!C2RXFUL1.rxful2) 
....................                return(0); 
....................             else { 
....................                stat.err_ovfl=C2RXOVF1.rxovf2; 
....................                C2RXOVF1.rxovf2=0; 
....................             } 
....................             break; 
....................          case 3: 
....................             if(!C2RXFUL1.rxful3) 
....................                return(0); 
....................             else { 
....................                stat.err_ovfl=C2RXOVF1.rxovf3; 
....................                C2RXOVF1.rxovf3=0; 
....................             } 
....................             break; 
....................          case 4: 
....................             if(!C2RXFUL1.rxful4) 
....................                return(0); 
....................             else { 
....................                stat.err_ovfl=C2RXOVF1.rxovf4; 
....................                C2RXOVF1.rxovf4=0; 
....................             } 
....................             break; 
....................          case 5: 
....................             if(!C2RXFUL1.rxful5) 
....................                return(0); 
....................             else { 
....................                stat.err_ovfl=C2RXOVF1.rxovf5; 
....................                C2RXOVF1.rxovf5=0; 
....................             } 
....................             break; 
....................          case 6: 
....................             if(!C2RXFUL1.rxful6) 
....................                return(0); 
....................             else { 
....................                stat.err_ovfl=C2RXOVF1.rxovf6; 
....................                C2RXOVF1.rxovf6=0; 
....................             } 
....................             break; 
....................          case 7: 
....................             if(!C2RXFUL1.rxful7) 
....................                return(0); 
....................             else { 
....................                stat.err_ovfl=C2RXOVF1.rxovf7; 
....................                C2RXOVF1.rxovf7=0; 
....................             } 
....................             break; 
....................          case 8: 
....................             if(!C2RXFUL1.rxful8) 
....................                return(0); 
....................             else { 
....................                stat.err_ovfl=C2RXOVF1.rxovf8; 
....................                C2RXOVF1.rxovf8=0; 
....................             } 
....................             break; 
....................          case 9: 
....................             if(!C2RXFUL1.rxful9) 
....................                return(0); 
....................             else { 
....................                stat.err_ovfl=C2RXOVF1.rxovf9; 
....................                C2RXOVF1.rxovf9=0; 
....................             } 
....................             break; 
....................          case 10: 
....................             if(!C2RXFUL1.rxful10) 
....................                return(0); 
....................             else { 
....................                stat.err_ovfl=C2RXOVF1.rxovf10; 
....................                C2RXOVF1.rxovf10=0; 
....................             } 
....................             break; 
....................          case 11: 
....................             if(!C2RXFUL1.rxful11) 
....................                return(0); 
....................             else { 
....................                stat.err_ovfl=C2RXOVF1.rxovf11; 
....................                C2RXOVF1.rxovf11=0; 
....................             } 
....................             break; 
....................          case 12: 
....................             if(!C2RXFUL1.rxful12) 
....................                return(0); 
....................             else { 
....................                stat.err_ovfl=C2RXOVF1.rxovf12; 
....................                C2RXOVF1.rxovf12=0; 
....................             } 
....................             break; 
....................          case 13: 
....................             if(!C2RXFUL1.rxful13) 
....................                return(0); 
....................             else { 
....................                stat.err_ovfl=C2RXOVF1.rxovf13; 
....................                C2RXOVF1.rxovf13=0; 
....................             } 
....................             break; 
....................          case 14: 
....................             if(!C2RXFUL1.rxful14) 
....................                return(0); 
....................             else { 
....................                stat.err_ovfl=C2RXOVF1.rxovf14; 
....................                C2RXOVF1.rxovf14=0; 
....................             } 
....................             break; 
....................          case 15: 
....................             if(!C2RXFUL1.rxful15) 
....................                return(0); 
....................             else { 
....................                stat.err_ovfl=C2RXOVF1.rxovf15; 
....................                C2RXOVF1.rxovf15=0; 
....................             } 
....................             break; 
....................          case 16: 
....................             if(!C2RXFUL2.rxful16) 
....................                return(0); 
....................             else { 
....................                stat.err_ovfl=C2RXOVF2.rxovf16; 
....................                C2RXOVF2.rxovf16=0; 
....................             } 
....................             break; 
....................          case 17: 
....................             if(!C2RXFUL2.rxful17) 
....................                return(0); 
....................             else { 
....................                stat.err_ovfl=C2RXOVF2.rxovf17; 
....................                C2RXOVF2.rxovf17=0; 
....................             } 
....................             break; 
....................          case 18: 
....................             if(!C2RXFUL2.rxful18) 
....................                return(0); 
....................             else { 
....................                stat.err_ovfl=C2RXOVF2.rxovf18; 
....................                C2RXOVF2.rxovf18=0; 
....................             } 
....................             break; 
....................          case 19: 
....................             if(!C2RXFUL2.rxful19) 
....................                return(0); 
....................             else { 
....................                stat.err_ovfl=C2RXOVF2.rxovf19; 
....................                C2RXOVF2.rxovf19=0; 
....................             } 
....................             break; 
....................          case 20: 
....................             if(!C2RXFUL2.rxful20) 
....................                return(0); 
....................             else { 
....................                stat.err_ovfl=C2RXOVF2.rxovf20; 
....................                C2RXOVF2.rxovf20=0; 
....................             } 
....................             break; 
....................          case 21: 
....................             if(!C2RXFUL2.rxful21) 
....................                return(0); 
....................             else { 
....................                stat.err_ovfl=C2RXOVF2.rxovf21; 
....................                C2RXOVF2.rxovf21=0; 
....................             } 
....................             break; 
....................          case 22: 
....................             if(!C2RXFUL2.rxful22) 
....................                return(0); 
....................             else { 
....................                stat.err_ovfl=C2RXOVF2.rxovf22; 
....................                C2RXOVF2.rxovf22=0; 
....................             } 
....................             break; 
....................          case 23: 
....................             if(!C2RXFUL2.rxful23) 
....................                return(0); 
....................             else { 
....................                stat.err_ovfl=C2RXOVF2.rxovf23; 
....................                C2RXOVF2.rxovf23=0; 
....................             } 
....................             break; 
....................          case 24: 
....................             if(!C2RXFUL2.rxful24) 
....................                return(0); 
....................             else { 
....................                stat.err_ovfl=C2RXOVF2.rxovf24; 
....................                C2RXOVF2.rxovf24=0; 
....................             } 
....................             break; 
....................          case 25: 
....................             if(!C2RXFUL2.rxful25) 
....................                return(0); 
....................             else { 
....................                stat.err_ovfl=C2RXOVF2.rxovf25; 
....................                C2RXOVF2.rxovf25=0; 
....................             } 
....................             break; 
....................          case 26: 
....................             if(!C2RXFUL2.rxful26) 
....................                return(0); 
....................             else { 
....................                stat.err_ovfl=C2RXOVF2.rxovf26; 
....................                C2RXOVF2.rxovf26=0; 
....................             } 
....................             break; 
....................          case 27: 
....................             if(!C2RXFUL2.rxful27) 
....................                return(0); 
....................             else { 
....................                stat.err_ovfl=C2RXOVF2.rxovf27; 
....................                C2RXOVF2.rxovf27=0; 
....................             } 
....................             break; 
....................          case 28: 
....................             if(!C2RXFUL2.rxful28) 
....................                return(0); 
....................             else { 
....................                stat.err_ovfl=C2RXOVF2.rxovf28; 
....................                C2RXOVF2.rxovf28=0; 
....................             } 
....................             break; 
....................          case 29: 
....................             if(!C2RXFUL2.rxful29) 
....................                return(0); 
....................             else { 
....................                stat.err_ovfl=C2RXOVF2.rxovf29; 
....................                C2RXOVF2.rxovf29=0; 
....................             } 
....................             break; 
....................          case 30: 
....................             if(!C2RXFUL2.rxful30) 
....................                return(0); 
....................             else { 
....................                stat.err_ovfl=C2RXOVF2.rxovf30; 
....................                C2RXOVF2.rxovf30=0; 
....................             } 
....................             break; 
....................          case 31: 
....................             if(!C2RXFUL2.rxful31) 
....................                return(0); 
....................             else { 
....................                stat.err_ovfl=C2RXOVF2.rxovf31; 
....................                C2RXOVF2.rxovf31=0; 
....................             } 
....................             break; 
....................       } 
....................        
....................       C2INTF.rbif=0; 
....................        
....................       stat.buffer=C2FIFO.fnrb; 
....................        
....................       ptr=&ecan2_message_buffer[stat.buffer][0]; 
....................       stat.ext=(*ptr & 0x1); 
....................       temp=(*ptr & 0x1); 
....................          
....................       ptr+=2; 
....................       len=(*ptr & 0xF); 
....................       stat.rtr=((make8(*ptr,1) & 0x2) >> 1); 
....................        
....................       ptr+=5; 
....................       stat.filthit=(make8(*ptr,1) & 0x1F); 
....................           
....................       id=can2_get_id(stat.buffer,temp); 
....................        
....................       ptr=&ecan2_message_buffer[stat.buffer][3]; 
....................       for(i=0;i<len;i+=2) 
....................       { 
....................          data[i]=make8(*ptr,0); 
....................          if (i+1!=len) 
....................             data[i+1]=make8(*ptr,1); 
....................          ptr++; 
....................       } 
....................        
....................       stat.inv=C2INTF.ivrif; 
....................       C2INTF.ivrif=0; 
....................        
....................      #ifndef DONT_USE_ERRATA_WORKAROUND 
....................       //This change was made to workaround an errata the dsPIC33EV family has 
....................       if(stat.buffer < 16) 
....................          (uint16_t)C2RXFUL1 = ~(0x0001 << (uint16_t)stat.buffer); 
....................       else 
....................          (uint16_t)C2RXFUL2 = ~(0x0001 << ((uint16_t)stat.buffer - 16)); 
....................      #else 
....................       switch(stat.buffer) 
....................       { 
....................          case 0: 
....................             C2RXFUL1.rxful0=0; 
....................             break; 
....................          case 1: 
....................             C2RXFUL1.rxful1=0; 
....................             break; 
....................          case 2: 
....................             C2RXFUL1.rxful2=0; 
....................             break; 
....................          case 3: 
....................             C2RXFUL1.rxful3=0; 
....................             break; 
....................          case 4: 
....................             C2RXFUL1.rxful4=0; 
....................             break; 
....................          case 5: 
....................             C2RXFUL1.rxful5=0; 
....................             break; 
....................          case 6: 
....................             C2RXFUL1.rxful6=0; 
....................             break; 
....................          case 7: 
....................             C2RXFUL1.rxful7=0; 
....................             break; 
....................          case 8: 
....................             C2RXFUL1.rxful8=0; 
....................             break; 
....................          case 9: 
....................             C2RXFUL1.rxful9=0; 
....................             break; 
....................          case 10: 
....................             C2RXFUL1.rxful10=0; 
....................             break; 
....................          case 11: 
....................             C2RXFUL1.rxful11=0; 
....................             break; 
....................          case 12: 
....................             C2RXFUL1.rxful12=0; 
....................             break; 
....................          case 13: 
....................             C2RXFUL1.rxful13=0; 
....................             break; 
....................          case 14: 
....................             C2RXFUL1.rxful14=0; 
....................             break; 
....................          case 15: 
....................             C2RXFUL1.rxful15=0; 
....................             break; 
....................          case 16: 
....................             C2RXFUL2.rxful16=0; 
....................             break; 
....................          case 17: 
....................             C2RXFUL2.rxful17=0; 
....................             break; 
....................          case 18: 
....................             C2RXFUL2.rxful18=0; 
....................             break; 
....................          case 19: 
....................             C2RXFUL2.rxful19=0; 
....................             break; 
....................          case 20: 
....................             C2RXFUL2.rxful20=0; 
....................             break; 
....................          case 21: 
....................             C2RXFUL2.rxful21=0; 
....................             break; 
....................          case 22: 
....................             C2RXFUL2.rxful22=0; 
....................             break; 
....................          case 23: 
....................             C2RXFUL2.rxful23=0; 
....................             break; 
....................          case 24: 
....................             C2RXFUL2.rxful24=0; 
....................             break; 
....................          case 25: 
....................             C2RXFUL2.rxful25=0; 
....................             break; 
....................          case 26: 
....................             C2RXFUL2.rxful26=0; 
....................             break; 
....................          case 27: 
....................             C2RXFUL2.rxful27=0; 
....................             break; 
....................          case 28: 
....................             C2RXFUL2.rxful28=0; 
....................             break; 
....................          case 29: 
....................             C2RXFUL2.rxful29=0; 
....................             break; 
....................          case 30: 
....................             C2RXFUL2.rxful30=0; 
....................             break; 
....................          case 31: 
....................             C2RXFUL2.rxful31=0; 
....................             break; 
....................       } 
....................      #endif 
....................        
....................       return(1); 
....................    } 
.................... #endif 
....................  
.................... //////////////////////////////////////////////////////////////////////////////// 
.................... // 
.................... // can_trb0_putd - can_trb7_putd 
.................... // can2_trb0_putd - can2_trb7_putd 
.................... // 
.................... // Places data to be transferred in a specified buffer 
.................... // 
.................... // Parameters: 
.................... //      id - id that will be sent with the data 
.................... //    data - pointer to the data 
.................... //      len - number of data bytes (0-8) 
.................... //      pri - priority (0-3) 
.................... //      ext - extended or not 
.................... //    rtr - request remote transfer 
.................... // 
.................... // Returns: 
.................... //      TRUE if data is successfully loaded into the buffer 
.................... //      FALSE if data can not be loaded into the buffer 
.................... // 
.................... //   Notes 
.................... //      - make sure that the desired buffer is set to be a transfer buffer 
.................... //        using the can_enable_b_transfer ( ) function 
.................... // 
.................... //////////////////////////////////////////////////////////////////////////////// 
....................  
.................... // programmable transfer buffer TRB0 
.................... int1 can_trb0_putd(uint32_t id, uint8_t *data, uint8_t len, uint8_t pri, int1 ext, int1 rtr) 
.................... { 
....................    uint16_t i; 
....................    uint16_t *ptr; 
....................    uint16_t temp; 
....................     
....................    if(C1TR01CON.txreqm || !C1TR01CON.txenm) 
....................       return(0); 
....................        
....................    C1TR01CON.txmpri=pri; 
....................     
....................    if(ext) 
....................    { 
....................       temp=(((id & 0x1FFC0000) >> 16) | (((uint16_t)rtr << 1) | (uint16_t)ext)) & 0x1FFF; 
....................       ecan1_message_buffer[0][0]=temp; 
....................       temp=((id & 0x3FFC0) >> 6) & 0x0FFF; 
....................       ecan1_message_buffer[0][1]=temp; 
....................       temp=(((id & 0x3F) << 10) | (((uint16_t)rtr << 9) | (uint16_t)len)) & 0xFF1F; 
....................       ecan1_message_buffer[0][2]=temp; 
....................    } 
....................    else 
....................    { 
....................       temp=(((id & 0x7FF) << 2) | (((uint16_t)rtr << 1) | (uint16_t)ext)) & 0x1FFF; 
....................       ecan1_message_buffer[0][0]=temp; 
....................       ecan1_message_buffer[0][1]=0x0000; 
....................       temp=(((uint16_t)rtr << 9) | (uint16_t)len)& 0xFF1F; 
....................       ecan1_message_buffer[0][2]=temp; 
....................    } 
....................     
....................    ptr=&ecan1_message_buffer[0][3]; 
....................    for(i=0;i<len;i+=2) 
....................    { 
....................       if (i+1==len) 
....................          *ptr=make16(0,data[i]); 
....................       else 
....................          *ptr=make16(data[i+1],data[i]); 
....................       ptr++; 
....................    } 
....................     
....................    C1TR01CON.txreqm=1; 
....................     
....................    return(1); 
.................... } 
....................  
.................... #if getenv("SFR_VALID:C2CTRL1") 
....................    int1 can2_trb0_putd(uint32_t id, uint8_t *data, uint8_t len, uint8_t pri, int1 ext, int1 rtr) 
....................    { 
....................       uint16_t i; 
....................       uint16_t *ptr; 
....................       uint16_t temp; 
....................        
....................       if(C2TR01CON.txreqm || !C2TR01CON.txenm) 
....................          return(0); 
....................           
....................       C2TR01CON.txmpri=pri; 
....................        
....................       if(ext) 
....................       { 
....................          temp=(((id & 0x1FFC0000) >> 16) | (((uint16_t)rtr << 1) | (uint16_t)ext)) & 0x1FFF; 
....................          ecan2_message_buffer[0][0]=temp; 
....................          temp=((id & 0x3FFC0) >> 6) & 0x0FFF; 
....................          ecan2_message_buffer[0][1]=temp; 
....................          temp=(((id & 0x3F) << 10) | (((uint16_t)rtr << 9) | (uint16_t)len)) & 0xFF1F; 
....................          ecan2_message_buffer[0][2]=temp; 
....................       } 
....................       else 
....................       { 
....................          temp=(((id & 0x7FF) << 2) | (((uint16_t)rtr << 1) | (uint16_t)ext)) & 0x1FFF; 
....................          ecan2_message_buffer[0][0]=temp; 
....................          ecan2_message_buffer[0][1]=0x0000; 
....................          temp=(((uint16_t)rtr << 9) | (uint16_t)len)& 0xFF1F; 
....................          ecan2_message_buffer[0][2]=temp; 
....................       } 
....................        
....................       ptr=&ecan2_message_buffer[0][3]; 
....................       for(i=0;i<len;i+=2) 
....................       { 
....................          if (i+1==len) 
....................             *ptr=make16(0,data[i]); 
....................          else 
....................             *ptr=make16(data[i+1],data[i]); 
....................          ptr++; 
....................       } 
....................        
....................       C2TR01CON.txreqm=1; 
....................        
....................       return(1); 
....................    } 
.................... #endif 
....................  
.................... // programmable transfer buffer TRB1 
.................... int1 can_trb1_putd(uint32_t id, uint8_t *data, uint8_t len, uint8_t pri, int1 ext, int1 rtr) 
.................... { 
....................    uint16_t i; 
....................    uint16_t *ptr; 
....................    uint16_t temp; 
....................     
....................    if(C1TR01CON.txreqn || !C1TR01CON.txenn) 
....................       return(0); 
....................        
....................    C1TR01CON.txnpri=pri; 
....................     
....................    if(ext) 
....................    { 
....................       temp=(((id & 0x1FFC0000) >> 16) | (((uint16_t)rtr << 1) | (uint16_t)ext)) & 0x1FFF; 
....................       ecan1_message_buffer[1][0]=temp; 
....................       temp=((id & 0x3FFC0) >> 6) & 0x0FFF; 
....................       ecan1_message_buffer[1][1]=temp; 
....................       temp=(((id & 0x3F) << 10) | (((uint16_t)rtr << 9) | (uint16_t)len)) & 0xFF1F; 
....................       ecan1_message_buffer[1][2]=temp; 
....................    } 
....................    else 
....................    {   
....................       temp=(((id & 0x7FF) << 2) | (((uint16_t)rtr << 1) | (uint16_t)ext)) & 0x1FFF; 
....................       ecan1_message_buffer[1][0]=temp; 
....................       ecan1_message_buffer[1][1]=0x0000; 
....................       temp=(((uint16_t)rtr << 9) | (uint16_t)len)& 0xFF1F; 
....................       ecan1_message_buffer[1][2]=temp; 
....................    } 
....................     
....................    ptr=&ecan1_message_buffer[1][3]; 
....................    for(i=0;i<len;i+=2) 
....................    { 
....................       if (i+1==len) 
....................          *ptr=make16(0,data[i]); 
....................       else 
....................          *ptr=make16(data[i+1],data[i]); 
....................       ptr++; 
....................    } 
....................     
....................    C1TR01CON.txreqn=1; 
....................     
....................    return(1); 
.................... } 
....................  
.................... #if getenv("SFR_VALID:C2CTRL1") 
....................    int1 can2_trb1_putd(uint32_t id, uint8_t *data, uint8_t len, uint8_t pri, int1 ext, int1 rtr) 
....................    { 
....................       uint16_t i; 
....................       uint16_t *ptr; 
....................       uint16_t temp; 
....................        
....................       if(C2TR01CON.txreqn || !C2TR01CON.txenn) 
....................          return(0); 
....................           
....................       C2TR01CON.txnpri=pri; 
....................        
....................       if(ext) 
....................       { 
....................          temp=(((id & 0x1FFC0000) >> 16) | (((uint16_t)rtr << 1) | (uint16_t)ext)) & 0x1FFF; 
....................          ecan2_message_buffer[1][0]=temp; 
....................          temp=((id & 0x3FFC0) >> 6) & 0x0FFF; 
....................          ecan2_message_buffer[1][1]=temp; 
....................          temp=(((id & 0x3F) << 10) | (((uint16_t)rtr << 9) | (uint16_t)len)) & 0xFF1F; 
....................          ecan2_message_buffer[1][2]=temp; 
....................       } 
....................       else 
....................       {   
....................          temp=(((id & 0x7FF) << 2) | (((uint16_t)rtr << 1) | (uint16_t)ext)) & 0x1FFF; 
....................          ecan2_message_buffer[1][0]=temp; 
....................          ecan2_message_buffer[1][1]=0x0000; 
....................          temp=(((uint16_t)rtr << 9) | (uint16_t)len)& 0xFF1F; 
....................          ecan2_message_buffer[1][2]=temp; 
....................       } 
....................        
....................       ptr=&ecan2_message_buffer[1][3]; 
....................       for(i=0;i<len;i+=2) 
....................       { 
....................          if (i+1==len) 
....................             *ptr=make16(0,data[i]); 
....................          else 
....................             *ptr=make16(data[i+1],data[i]); 
....................          ptr++; 
....................       } 
....................        
....................       C2TR01CON.txreqn=1; 
....................        
....................       return(1); 
....................    } 
.................... #endif 
....................  
.................... // programmable transfer buffer TRB2 
.................... int1 can_trb2_putd(uint32_t id, uint8_t *data, uint8_t len, uint8_t pri, int1 ext, int1 rtr) 
.................... { 
....................    uint16_t i; 
....................    uint16_t *ptr; 
....................    uint16_t temp; 
....................     
....................    if(C1TR23CON.txreqm || !C1TR23CON.txenm) 
....................       return(0); 
....................        
....................    C1TR23CON.txmpri=pri; 
....................     
....................    if(ext) 
....................    { 
....................       temp=(((id & 0x1FFC0000) >> 16) | (((uint16_t)rtr << 1) | (uint16_t)ext)) & 0x1FFF; 
....................       ecan1_message_buffer[2][0]=temp; 
....................       temp=((id & 0x3FFC0) >> 6) & 0x0FFF; 
....................       ecan1_message_buffer[2][1]=temp; 
....................       temp=(((id & 0x3F) << 10) | (((uint16_t)rtr << 9) | (uint16_t)len)) & 0xFF1F; 
....................       ecan1_message_buffer[2][2]=temp; 
....................    } 
....................    else 
....................    { 
....................       temp=(((id & 0x7FF) << 2) | (((uint16_t)rtr << 1) | (uint16_t)ext)) & 0x1FFF; 
....................       ecan1_message_buffer[2][0]=temp; 
....................       ecan1_message_buffer[2][1]=0x0000; 
....................       temp=(((uint16_t)rtr << 9) | (uint16_t)len)& 0xFF1F; 
....................       ecan1_message_buffer[2][2]=temp; 
....................    } 
....................     
....................    ptr=&ecan1_message_buffer[2][3]; 
....................    for(i=0;i<len;i+=2) 
....................    { 
....................       if (i+1==len) 
....................          *ptr=make16(0,data[i]); 
....................       else 
....................          *ptr=make16(data[i+1],data[i]); 
....................       ptr++; 
....................    } 
....................     
....................    C1TR23CON.txreqm=1; 
....................     
....................    return(1); 
.................... } 
....................  
.................... #if getenv("SFR_VALID:C2CTRL1") 
....................    int1 can2_trb2_putd(uint32_t id, uint8_t *data, uint8_t len, uint8_t pri, int1 ext, int1 rtr) 
....................    { 
....................       uint16_t i; 
....................       uint16_t *ptr; 
....................       uint16_t temp; 
....................        
....................       if(C2TR23CON.txreqm || !C2TR23CON.txenm) 
....................          return(0); 
....................           
....................       C2TR23CON.txmpri=pri; 
....................        
....................       if(ext) 
....................       { 
....................          temp=(((id & 0x1FFC0000) >> 16) | (((uint16_t)rtr << 1) | (uint16_t)ext)) & 0x1FFF; 
....................          ecan2_message_buffer[2][0]=temp; 
....................          temp=((id & 0x3FFC0) >> 6) & 0x0FFF; 
....................          ecan2_message_buffer[2][1]=temp; 
....................          temp=(((id & 0x3F) << 10) | (((uint16_t)rtr << 9) | (uint16_t)len)) & 0xFF1F; 
....................          ecan2_message_buffer[2][2]=temp; 
....................       } 
....................       else 
....................       { 
....................          temp=(((id & 0x7FF) << 2) | (((uint16_t)rtr << 1) | (uint16_t)ext)) & 0x1FFF; 
....................          ecan2_message_buffer[2][0]=temp; 
....................          ecan2_message_buffer[2][1]=0x0000; 
....................          temp=(((uint16_t)rtr << 9) | (uint16_t)len)& 0xFF1F; 
....................          ecan2_message_buffer[2][2]=temp; 
....................       } 
....................        
....................       ptr=&ecan2_message_buffer[2][3]; 
....................       for(i=0;i<len;i+=2) 
....................       { 
....................          if (i+1==len) 
....................             *ptr=make16(0,data[i]); 
....................          else 
....................             *ptr=make16(data[i+1],data[i]); 
....................          ptr++; 
....................       } 
....................        
....................       C2TR23CON.txreqm=1; 
....................        
....................       return(1); 
....................    } 
.................... #endif 
....................  
.................... // programmable transfer buffer TRB3 
.................... int1 can_trb3_putd(uint32_t id, uint8_t *data, uint8_t len, uint8_t pri, int1 ext, int1 rtr) 
.................... { 
....................    uint16_t i; 
....................    uint16_t *ptr; 
....................    uint16_t temp; 
....................     
....................    if(C1TR23CON.txreqn || !C1TR23CON.txenn) 
....................       return(0); 
....................        
....................    C1TR23CON.txnpri=pri; 
....................     
....................    if(ext) 
....................    { 
....................       temp=(((id & 0x1FFC0000) >> 16) | (((uint16_t)rtr << 1) | (uint16_t)ext)) & 0x1FFF; 
....................       ecan1_message_buffer[3][0]=temp; 
....................       temp=((id & 0x3FFC0) >> 6) & 0x0FFF; 
....................       ecan1_message_buffer[3][1]=temp; 
....................       temp=(((id & 0x3F) << 10) | (((uint16_t)rtr << 9) | (uint16_t)len)) & 0xFF1F; 
....................       ecan1_message_buffer[3][2]=temp; 
....................    } 
....................    else 
....................    { 
....................       temp=(((id & 0x7FF) << 2) | (((uint16_t)rtr << 1) | (uint16_t)ext)) & 0x1FFF; 
....................       ecan1_message_buffer[3][0]=temp; 
....................       ecan1_message_buffer[3][1]=0x0000; 
....................       temp=(((uint16_t)rtr << 9) | (uint16_t)len)& 0xFF1F; 
....................       ecan1_message_buffer[3][2]=temp; 
....................    } 
....................     
....................    ptr=&ecan1_message_buffer[3][3]; 
....................    for(i=0;i<len;i+=2) 
....................    { 
....................       if (i+1==len) 
....................          *ptr=make16(0,data[i]); 
....................       else 
....................          *ptr=make16(data[i+1],data[i]); 
....................       ptr++; 
....................    } 
....................     
....................    C1TR23CON.txreqn=1; 
....................     
....................    return(1); 
.................... } 
....................  
.................... #if getenv("SFR_VALID:C2CTRL1") 
....................    int1 can2_trb3_putd(uint32_t id, uint8_t *data, uint8_t len, uint8_t pri, int1 ext, int1 rtr) 
....................    { 
....................       uint16_t i; 
....................       uint16_t *ptr; 
....................       uint16_t temp; 
....................        
....................       if(C2TR23CON.txreqn || !C2TR23CON.txenn) 
....................          return(0); 
....................           
....................       C2TR23CON.txnpri=pri; 
....................        
....................       if(ext) 
....................       { 
....................          temp=(((id & 0x1FFC0000) >> 16) | (((uint16_t)rtr << 1) | (uint16_t)ext)) & 0x1FFF; 
....................          ecan2_message_buffer[3][0]=temp; 
....................          temp=((id & 0x3FFC0) >> 6) & 0x0FFF; 
....................          ecan2_message_buffer[3][1]=temp; 
....................          temp=(((id & 0x3F) << 10) | (((uint16_t)rtr << 9) | (uint16_t)len)) & 0xFF1F; 
....................          ecan2_message_buffer[3][2]=temp; 
....................       } 
....................       else 
....................       { 
....................          temp=(((id & 0x7FF) << 2) | (((uint16_t)rtr << 1) | (uint16_t)ext)) & 0x1FFF; 
....................          ecan2_message_buffer[3][0]=temp; 
....................          ecan2_message_buffer[3][1]=0x0000; 
....................          temp=(((uint16_t)rtr << 9) | (uint16_t)len)& 0xFF1F; 
....................          ecan2_message_buffer[3][2]=temp; 
....................       } 
....................        
....................       ptr=&ecan2_message_buffer[3][3]; 
....................       for(i=0;i<len;i+=2) 
....................       { 
....................          if (i+1==len) 
....................             *ptr=make16(0,data[i]); 
....................          else 
....................             *ptr=make16(data[i+1],data[i]); 
....................          ptr++; 
....................       } 
....................        
....................       C2TR23CON.txreqn=1; 
....................        
....................       return(1); 
....................    } 
.................... #endif 
....................  
.................... // programmable transfer buffer TRB4 
.................... #if CAN_BUFFER_SIZE>4 
....................    int1 can_trb4_putd(uint32_t id, uint8_t *data, uint8_t len, uint8_t pri, int1 ext, int1 rtr) 
....................    { 
....................       uint16_t i; 
....................       uint16_t *ptr; 
....................       uint16_t temp; 
....................        
....................       if(C1TR45CON.txreqm || !C1TR45CON.txenm) 
....................          return(0); 
....................           
....................       C1TR45CON.txmpri=pri; 
....................        
....................       if(ext) 
....................       { 
....................          temp=(((id & 0x1FFC0000) >> 16) | (((uint16_t)rtr << 1) | (uint16_t)ext)) & 0x1FFF; 
....................          ecan1_message_buffer[4][0]=temp; 
....................          temp=((id & 0x3FFC0) >> 6) & 0x0FFF; 
....................          ecan1_message_buffer[4][1]=temp; 
....................          temp=(((id & 0x3F) << 10) | (((uint16_t)rtr << 9) | (uint16_t)len)) & 0xFF1F; 
....................          ecan1_message_buffer[4][2]=temp; 
....................       } 
....................       else 
....................       { 
....................          temp=(((id & 0x7FF) << 2) | (((uint16_t)rtr << 1) | (uint16_t)ext)) & 0x1FFF; 
....................          ecan1_message_buffer[4][0]=temp; 
....................          ecan1_message_buffer[4][1]=0x0000; 
....................          temp=(((uint16_t)rtr << 9) | (uint16_t)len)& 0xFF1F; 
....................          ecan1_message_buffer[4][2]=temp; 
....................       } 
....................        
....................       ptr=&ecan1_message_buffer[4][3]; 
....................       for(i=0;i<len;i+=2) 
....................       { 
....................          if (i+1==len) 
....................             *ptr=make16(0,data[i]); 
....................          else 
....................             *ptr=make16(data[i+1],data[i]); 
....................          ptr++; 
....................       } 
....................        
....................       C1TR45CON.txreqm=1; 
....................        
....................       return(1); 
....................    } 
.................... #endif 
....................  
.................... #if getenv("SFR_VALID:C2CTRL1") 
....................    #if CAN2_BUFFER_SIZE>4 
....................       int1 can2_trb4_putd(uint32_t id, uint8_t *data, uint8_t len, uint8_t pri, int1 ext, int1 rtr) 
....................       { 
....................          uint16_t i; 
....................          uint16_t *ptr; 
....................          uint16_t temp; 
....................           
....................          if(C2TR45CON.txreqm || !C2TR45CON.txenm) 
....................             return(0); 
....................              
....................          C2TR45CON.txmpri=pri; 
....................           
....................          if(ext) 
....................          { 
....................             temp=(((id & 0x1FFC0000) >> 16) | (((uint16_t)rtr << 1) | (uint16_t)ext)) & 0x1FFF; 
....................             ecan2_message_buffer[4][0]=temp; 
....................             temp=((id & 0x3FFC0) >> 6) & 0x0FFF; 
....................             ecan2_message_buffer[4][1]=temp; 
....................             temp=(((id & 0x3F) << 10) | (((uint16_t)rtr << 9) | (uint16_t)len)) & 0xFF1F; 
....................             ecan2_message_buffer[4][2]=temp; 
....................          } 
....................          else 
....................          { 
....................             temp=(((id & 0x7FF) << 2) | (((uint16_t)rtr << 1) | (uint16_t)ext)) & 0x1FFF; 
....................             ecan2_message_buffer[4][0]=temp; 
....................             ecan2_message_buffer[4][1]=0x0000; 
....................             temp=(((uint16_t)rtr << 9) | (uint16_t)len)& 0xFF1F; 
....................             ecan2_message_buffer[4][2]=temp; 
....................          } 
....................           
....................          ptr=&ecan2_message_buffer[4][3]; 
....................          for(i=0;i<len;i+=2) 
....................          { 
....................             if (i+1==len) 
....................                *ptr=make16(0,data[i]); 
....................             else 
....................                *ptr=make16(data[i+1],data[i]); 
....................             ptr++; 
....................          } 
....................           
....................          C2TR45CON.txreqm=1; 
....................           
....................          return(1); 
....................       } 
....................    #endif 
.................... #endif 
....................  
.................... // programmable transfer buffer TRB5 
.................... #if CAN_BUFFER_SIZE>4 
....................    int1 can_trb5_putd(uint32_t id, uint8_t *data, uint8_t len, uint8_t pri, int1 ext, int1 rtr) 
....................    { 
....................       uint16_t i; 
....................       uint16_t *ptr; 
....................       uint16_t temp; 
....................        
....................       if(C1TR45CON.txreqn || !C1TR45CON.txenn) 
....................          return(0); 
....................           
....................       C1TR45CON.txnpri=pri; 
....................        
....................       if(ext) 
....................       { 
....................          temp=(((id & 0x1FFC0000) >> 16) | (((uint16_t)rtr << 1) | (uint16_t)ext)) & 0x1FFF; 
....................          ecan1_message_buffer[5][0]=temp; 
....................          temp=((id & 0x3FFC0) >> 6) & 0x0FFF; 
....................          ecan1_message_buffer[5][1]=temp; 
....................          temp=(((id & 0x3F) << 10) | (((uint16_t)rtr << 9) | (uint16_t)len)) & 0xFF1F; 
....................          ecan1_message_buffer[5][2]=temp; 
....................       } 
....................       else 
....................       { 
....................          temp=(((id & 0x7FF) << 2) | (((uint16_t)rtr << 1) | (uint16_t)ext)) & 0x1FFF; 
....................          ecan1_message_buffer[5][0]=temp; 
....................          ecan1_message_buffer[5][1]=0x0000; 
....................          temp=(((uint16_t)rtr << 9) | (uint16_t)len)& 0xFF1F; 
....................          ecan1_message_buffer[5][2]=temp; 
....................       } 
....................        
....................       ptr=&ecan1_message_buffer[5][3]; 
....................       for(i=0;i<len;i+=2) 
....................       { 
....................          if (i+1==len) 
....................             *ptr=make16(0,data[i]); 
....................          else 
....................             *ptr=make16(data[i+1],data[i]); 
....................          ptr++; 
....................       } 
....................        
....................       C1TR45CON.txreqn=1; 
....................        
....................       return(1); 
....................    } 
.................... #endif 
....................  
.................... #if getenv("SFR_VALID:C2CTRL1") 
....................    #if CAN2_BUFFER_SIZE>4 
....................       int1 can2_trb5_putd(uint32_t id, uint8_t *data, uint8_t len, uint8_t pri, int1 ext, int1 rtr) 
....................       { 
....................          uint16_t i; 
....................          uint16_t *ptr; 
....................          uint16_t temp; 
....................           
....................          if(C2TR45CON.txreqn || !C2TR45CON.txenn) 
....................             return(0); 
....................              
....................          C2TR45CON.txnpri=pri; 
....................           
....................          if(ext) 
....................          { 
....................             temp=(((id & 0x1FFC0000) >> 16) | (((uint16_t)rtr << 1) | (uint16_t)ext)) & 0x1FFF; 
....................             ecan2_message_buffer[5][0]=temp; 
....................             temp=((id & 0x3FFC0) >> 6) & 0x0FFF; 
....................             ecan2_message_buffer[5][1]=temp; 
....................             temp=(((id & 0x3F) << 10) | (((uint16_t)rtr << 9) | (uint16_t)len)) & 0xFF1F; 
....................             ecan2_message_buffer[5][2]=temp; 
....................          } 
....................          else 
....................          { 
....................             temp=(((id & 0x7FF) << 2) | (((uint16_t)rtr << 1) | (uint16_t)ext)) & 0x1FFF; 
....................             ecan2_message_buffer[5][0]=temp; 
....................             ecan2_message_buffer[5][1]=0x0000; 
....................             temp=(((uint16_t)rtr << 9) | (uint16_t)len)& 0xFF1F; 
....................             ecan2_message_buffer[5][2]=temp; 
....................          } 
....................           
....................          ptr=&ecan2_message_buffer[5][3]; 
....................          for(i=0;i<len;i+=2) 
....................          { 
....................             if (i+1==len) 
....................                *ptr=make16(0,data[i]); 
....................             else 
....................                *ptr=make16(data[i+1],data[i]); 
....................             ptr++; 
....................          } 
....................           
....................          C2TR45CON.txreqn=1; 
....................           
....................          return(1); 
....................       } 
....................    #endif 
.................... #endif 
....................     
.................... // programmable transfer buffer TRB6 
.................... #if CAN_BUFFER_SIZE>6 
....................    int1 can_trb6_putd(uint32_t id, uint8_t *data, uint8_t len, uint8_t pri, int1 ext, int1 rtr) 
....................    { 
....................       uint16_t i; 
....................       uint16_t *ptr; 
....................       uint16_t temp; 
....................        
....................       if(C1TR67CON.txreqm || !C1TR67CON.txenm) 
....................          return(0); 
....................           
....................       C1TR67CON.txmpri=pri; 
....................        
....................       if(ext) 
....................       { 
....................          temp=(((id & 0x1FFC0000) >> 16) | (((uint16_t)rtr << 1) | (uint16_t)ext)) & 0x1FFF; 
....................          ecan1_message_buffer[6][0]=temp; 
....................          temp=((id & 0x3FFC0) >> 6) & 0x0FFF; 
....................          ecan1_message_buffer[6][1]=temp; 
....................          temp=(((id & 0x3F) << 10) | (((uint16_t)rtr << 9) | (uint16_t)len)) & 0xFF1F; 
....................          ecan1_message_buffer[6][2]=temp; 
....................       } 
....................       else 
....................       { 
....................          temp=(((id & 0x7FF) << 2) | (((uint16_t)rtr << 1) | (uint16_t)ext)) & 0x1FFF; 
....................          ecan1_message_buffer[6][0]=temp; 
....................          ecan1_message_buffer[6][1]=0x0000; 
....................          temp=(((uint16_t)rtr << 9) | (uint16_t)len)& 0xFF1F; 
....................          ecan1_message_buffer[6][2]=temp; 
....................       } 
....................        
....................       ptr=&ecan1_message_buffer[6][3]; 
....................       for(i=0;i<len;i+=2) 
....................       { 
....................          if (i+1==len) 
....................             *ptr=make16(0,data[i]); 
....................          else 
....................             *ptr=make16(data[i+1],data[i]); 
....................          ptr++; 
....................       } 
....................        
....................       C1TR67CON.txreqm=1; 
....................        
....................       return(1); 
....................    } 
.................... #endif 
....................  
.................... #if getenv("SFR_VALID:C2CTRL1") 
....................    #if CAN2_BUFFER_SIZE>6 
....................       int1 can2_trb6_putd(uint32_t id, uint8_t *data, uint8_t len, uint8_t pri, int1 ext, int1 rtr) 
....................       { 
....................          uint16_t i; 
....................          uint16_t *ptr; 
....................          uint16_t temp; 
....................           
....................          if(C2TR67CON.txreqm || !C2TR67CON.txenm) 
....................             return(0); 
....................              
....................          C2TR67CON.txmpri=pri; 
....................           
....................          if(ext) 
....................          { 
....................             temp=(((id & 0x1FFC0000) >> 16) | (((uint16_t)rtr << 1) | (uint16_t)ext)) & 0x1FFF; 
....................             ecan2_message_buffer[6][0]=temp; 
....................             temp=((id & 0x3FFC0) >> 6) & 0x0FFF; 
....................             ecan2_message_buffer[6][1]=temp; 
....................             temp=(((id & 0x3F) << 10) | (((uint16_t)rtr << 9) | (uint16_t)len)) & 0xFF1F; 
....................             ecan2_message_buffer[6][2]=temp; 
....................          } 
....................          else 
....................          { 
....................             temp=(((id & 0x7FF) << 2) | (((uint16_t)rtr << 1) | (uint16_t)ext)) & 0x1FFF; 
....................             ecan2_message_buffer[6][0]=temp; 
....................             ecan2_message_buffer[6][1]=0x0000; 
....................             temp=(((uint16_t)rtr << 9) | (uint16_t)len)& 0xFF1F; 
....................             ecan2_message_buffer[6][2]=temp; 
....................          } 
....................           
....................          ptr=&ecan2_message_buffer[6][3]; 
....................          for(i=0;i<len;i+=2) 
....................          { 
....................             if (i+1==len) 
....................                *ptr=make16(0,data[i]); 
....................             else 
....................                *ptr=make16(data[i+1],data[i]); 
....................             ptr++; 
....................          } 
....................           
....................          C2TR67CON.txreqm=1; 
....................           
....................          return(1); 
....................       } 
....................    #endif 
.................... #endif 
....................  
.................... // programmable transfer buffer TRB7 
.................... #if CAN_BUFFER_SIZE>6 
....................    int1 can_trb7_putd(uint32_t id, uint8_t *data, uint8_t len, uint8_t pri, int1 ext, int1 rtr) 
....................    { 
....................       uint16_t i; 
....................       uint16_t *ptr; 
....................       uint16_t temp; 
....................        
....................       if(C1TR67CON.txreqn || !C1TR67CON.txenn) 
....................          return(0); 
....................        
....................       C1TR67CON.txnpri=pri; 
....................        
....................       if(ext) 
....................       { 
....................          temp=(((id & 0x1FFC0000) >> 16) | (((uint16_t)rtr << 1) | (uint16_t)ext)) & 0x1FFF; 
....................          ecan1_message_buffer[7][0]=temp; 
....................          temp=((id & 0x3FFC0) >> 6) & 0x0FFF; 
....................          ecan1_message_buffer[7][1]=temp; 
....................          temp=(((id & 0x3F) << 10) | (((uint16_t)rtr << 9) | (uint16_t)len)) & 0xFF1F; 
....................          ecan1_message_buffer[7][2]=temp; 
....................       } 
....................       else 
....................       { 
....................          temp=(((id & 0x7FF) << 2) | (((uint16_t)rtr << 1) | (uint16_t)ext)) & 0x1FFF; 
....................          ecan1_message_buffer[7][0]=temp; 
....................          ecan1_message_buffer[7][1]=0x0000; 
....................          temp=(((uint16_t)rtr << 9) | (uint16_t)len)& 0xFF1F; 
....................          ecan1_message_buffer[7][2]=temp; 
....................       } 
....................        
....................       ptr=&ecan1_message_buffer[7][3]; 
....................       for(i=0;i<len;i+=2) 
....................       { 
....................          if (i+1==len) 
....................             *ptr=make16(0,data[i]); 
....................          else 
....................             *ptr=make16(data[i+1],data[i]); 
....................          ptr++; 
....................       } 
....................        
....................       C1TR67CON.txreqn=1; 
....................        
....................       return(1); 
....................    } 
.................... #endif 
....................  
.................... #if getenv("SFR_VALID:C2CTRL1") 
....................    #if CAN2_BUFFER_SIZE>6 
....................       int1 can2_trb7_putd(uint32_t id, uint8_t *data, uint8_t len, uint8_t pri, int1 ext, int1 rtr) 
....................       { 
....................          uint16_t i; 
....................          uint16_t *ptr; 
....................          uint16_t temp; 
....................           
....................          if(C2TR67CON.txreqn || !C2TR67CON.txenn) 
....................             return(0); 
....................           
....................          C2TR67CON.txnpri=pri; 
....................           
....................          if(ext) 
....................          { 
....................             temp=(((id & 0x1FFC0000) >> 16) | (((uint16_t)rtr << 1) | (uint16_t)ext)) & 0x1FFF; 
....................             ecan2_message_buffer[7][0]=temp; 
....................             temp=((id & 0x3FFC0) >> 6) & 0x0FFF; 
....................             ecan2_message_buffer[7][1]=temp; 
....................             temp=(((id & 0x3F) << 10) | (((uint16_t)rtr << 9) | (uint16_t)len)) & 0xFF1F; 
....................             ecan2_message_buffer[7][2]=temp; 
....................          } 
....................          else 
....................          { 
....................             temp=(((id & 0x7FF) << 2) | (((uint16_t)rtr << 1) | (uint16_t)ext)) & 0x1FFF; 
....................             ecan2_message_buffer[7][0]=temp; 
....................             ecan2_message_buffer[7][1]=0x0000; 
....................             temp=(((uint16_t)rtr << 9) | (uint16_t)len)& 0xFF1F; 
....................             ecan2_message_buffer[7][2]=temp; 
....................          } 
....................           
....................          ptr=&ecan2_message_buffer[7][3]; 
....................          for(i=0;i<len;i+=2) 
....................          { 
....................             if (i+1==len) 
....................                *ptr=make16(0,data[i]); 
....................             else 
....................                *ptr=make16(data[i+1],data[i]); 
....................             ptr++; 
....................          } 
....................           
....................          C2TR67CON.txreqn=1; 
....................           
....................          return(1); 
....................       } 
....................    #endif 
.................... #endif 
....................  
.................... //////////////////////////////////////////////////////////////////////////////// 
.................... // 
.................... // can_config_DMA() 
.................... // can2_config_DMA() 
.................... // 
.................... // Configures the DMA buffer to use the ECAN Peripheral 
.................... //    Transmit CAN1 set to DMA Channel 0 
.................... //    Receive CAN1 set to DMA Channel 1 
.................... //    Transmit CAN2 set to DMA Channel 2 
.................... //    Receive CAN2 set to DMA Channel 3 
.................... //        
.................... //////////////////////////////////////////////////////////////////////////////// 
.................... void can_config_DMA(void) 
.................... { 
....................    // transmission 
....................    setup_dma(0, DMA_OUT_ECAN1, DMA_WORD); 
*
007CE:  MOV.B   #20,W0L
007D0:  MOV.B   W0L,B01
007D2:  MOV.B   #46,W0L
007D4:  MOV.B   W0L,B02
007D6:  MOV     #442,W4
007D8:  MOV     W4,B0C
....................    dma_start(0, DMA_PERIF_ADDR, &ecan1_message_buffer[0][0], 7); 
007DA:  BCLR.B  B01.7
007DC:  MOV.B   #20,W0L
007DE:  MOV.B   W0L,B00
007E0:  MOV     #D000,W4
007E2:  MOV     W4,B04
007E4:  CLR     B06
007E6:  MOV     #7,W4
007E8:  MOV     W4,B0E
007EA:  BSET.B  B01.7
....................     
....................    // receive 
....................    setup_dma(1, DMA_IN_ECAN1, DMA_WORD); 
007EC:  CLR.B   B11
007EE:  MOV.B   #22,W0L
007F0:  MOV.B   W0L,B12
007F2:  MOV     #440,W4
007F4:  MOV     W4,B1C
....................    dma_start(1, DMA_PERIF_ADDR, &ecan1_message_buffer[0][0], 7); 
007F6:  BCLR.B  B11.7
007F8:  MOV.B   #20,W0L
007FA:  MOV.B   W0L,B10
007FC:  MOV     #D000,W4
007FE:  MOV     W4,B14
00800:  CLR     B16
00802:  MOV     #7,W4
00804:  MOV     W4,B1E
00806:  BSET.B  B11.7
00808:  RETURN  
.................... } 
....................  
.................... #if getenv("SFR_VALID:C2CTRL1") 
....................    void can2_config_DMA(void) 
....................    { 
....................       // transmission 
....................       setup_dma(2, DMA_OUT_ECAN2, DMA_WORD); 
*
00C6A:  MOV.B   #20,W0L
00C6C:  MOV.B   W0L,B21
00C6E:  MOV.B   #47,W0L
00C70:  MOV.B   W0L,B22
00C72:  MOV     #542,W4
00C74:  MOV     W4,B2C
....................       dma_start(2, DMA_PERIF_ADDR, &ecan2_message_buffer[0][0], 7); 
00C76:  BCLR.B  B21.7
00C78:  MOV.B   #20,W0L
00C7A:  MOV.B   W0L,B20
00C7C:  MOV     #D200,W4
00C7E:  MOV     W4,B24
00C80:  CLR     B26
00C82:  MOV     #7,W4
00C84:  MOV     W4,B2E
00C86:  BSET.B  B21.7
....................        
....................       // receive 
....................       setup_dma(3, DMA_IN_ECAN2, DMA_WORD); 
00C88:  CLR.B   B31
00C8A:  MOV.B   #37,W0L
00C8C:  MOV.B   W0L,B32
00C8E:  MOV     #540,W4
00C90:  MOV     W4,B3C
....................       dma_start(3, DMA_PERIF_ADDR, &ecan2_message_buffer[0][0], 7); 
00C92:  BCLR.B  B31.7
00C94:  MOV.B   #20,W0L
00C96:  MOV.B   W0L,B30
00C98:  MOV     #D200,W4
00C9A:  MOV     W4,B34
00C9C:  CLR     B36
00C9E:  MOV     #7,W4
00CA0:  MOV     W4,B3E
00CA2:  BSET.B  B31.7
00CA4:  RETURN  
....................    } 
.................... #endif 
....................  
.................... //////////////////////////////////////////////////////////////////////////////// 
.................... // 
.................... // can_enable_interrupts() 
.................... // can2_enable_interrupts() 
.................... // 
.................... //    Selects which interrupts causes the #INT_CAN1 and #INT_CAN2 interrupts to  
.................... //    fire 
.................... // 
.................... //    Parameters 
.................... //       setting - the selected interrupts  
.................... //          enumerated as 
.................... //             TB - Transmit Buffer Interrupt 
.................... //             RB - Receive Buffer Interrupt 
.................... //             RXOV - Receive Buffer Overflow Interrupt 
.................... //             FIFO - FIFO Almost Full Interrupt 
.................... //             ERR - Error interrupt 
.................... //             WAK - Wake-Up Interrupt 
.................... //             IVR - Invalid Message Received Interrupt 
.................... // 
.................... //          You can or these together (via |) to enable more than interrupt 
.................... // 
.................... //////////////////////////////////////////////////////////////////////////////// 
.................... void can_enable_interrupts(INTERRUPT setting) 
*
00200:  MOV     W5,[W15++]
.................... { 
....................    uint16_t temp; 
....................    uint16_t *ptr; 
....................     
....................    ptr = &C1INTE; 
00202:  MOV     #40C,W4
00204:  MOV     W4,105E
....................     
....................   // temp=C1INTE; 
....................   // C1INTE=(temp | setting); 
....................    
....................   temp = *ptr; 
00206:  MOV     105E,W0
00208:  MOV     [W0],[W15++]
0020A:  POP     105C
....................   *ptr = (temp | setting); 
0020C:  MOV     105E,W5
0020E:  MOV.B   105A,W0L
00210:  CLR.B   1
00212:  IOR     105C,W0
00214:  MOV     W0,[W5]
00216:  MOV     [--W15],W5
00218:  RETURN  
.................... } 
....................  
.................... #if getenv("SFR_VALID:C2CTRL1") 
....................    void can2_enable_interrupts(INTERRUPT setting) 
0021A:  MOV     W5,[W15++]
....................    { 
....................       uint16_t temp; 
....................       uint16_t *ptr; 
....................        
....................       ptr = &C2INTE; 
0021C:  MOV     #50C,W4
0021E:  MOV     W4,105E
....................        
....................       //temp=C2INTE; 
....................       //C2INTE=(temp | setting); 
....................       temp = *ptr; 
00220:  MOV     105E,W0
00222:  MOV     [W0],[W15++]
00224:  POP     105C
....................       *ptr = (temp | setting); 
00226:  MOV     105E,W5
00228:  MOV.B   105A,W0L
0022A:  CLR.B   1
0022C:  IOR     105C,W0
0022E:  MOV     W0,[W5]
00230:  MOV     [--W15],W5
00232:  RETURN  
....................    } 
.................... #endif 
....................  
.................... //////////////////////////////////////////////////////////////////////////////// 
.................... // 
.................... // can_disable_interrupts() 
.................... // can2_disable_interrupts() 
.................... // 
.................... //    Disables specified interrupts that causes the #INT_CAN1 and #INT_CAN2 
.................... //       interrupts to fire 
.................... // 
.................... //    Parameters 
.................... //       setting - the selected interrupts  
.................... //          enumerated as 
.................... //             TB - Transmit Buffer Interrupt 
.................... //             RB - Receive Buffer Interrupt 
.................... //             RXOV - Receive Buffer Overflow Interrupt 
.................... //             FIFO - FIFO Almost Full Interrupt 
.................... //             ERR - Error interrupt 
.................... //             WAK - Wake-Up Interrupt 
.................... //             IVR - Invalid Message Received Interrupt 
.................... // 
.................... //          You can or these together (via |) to enable more than interrupt 
.................... // 
.................... //////////////////////////////////////////////////////////////////////////////// 
.................... void can_disable_interrupts(INTERRUPT setting) 
.................... { 
....................    uint16_t temp; 
....................    uint16_t *ptr; 
....................     
....................    ptr = &C1INTE; 
....................     
....................    //temp=C1INTE; 
....................    temp = *ptr; 
....................    temp&=(setting^0xFF); 
....................     
....................    //C1INTE=temp; 
....................    *ptr = temp; 
.................... } 
....................  
.................... #if getenv("SFR_VALID:C2CTRL1") 
....................    void can2_disable_interrupts(INTERRUPT setting) 
....................    { 
....................       uint16_t temp; 
....................       uint16_t ptr; 
....................        
....................       ptr = &C2INTE; 
....................        
....................       //temp=C2INTE; 
....................       temp = *ptr; 
....................       temp&=(setting^0xFF); 
....................        
....................       //C2INTE=temp; 
....................       *ptr = temp; 
....................    } 
.................... #endif 
....................  
....................  
.................... //SALIDAS 
.................... #define PIN_OUTPUT_LED_AMS PIN_B9         
.................... #define PIN_OUTPUT_LED_V PIN_B10          
....................  
.................... ////////////////////// Definimos los valores de las id de can ///////////////// 
.................... #define CAN_ID_SPEED_STEERING  0x180  
.................... #define CAN_ID_SUSPEN_TEMP 0X181 
....................  
.................... #define CAN_BUFFER_LENGTH 8 //mensaje de 8 "celdas" 
.................... #define CAN_PRIORITY 2  
....................  
....................  
.................... ////////////////////////DEFINICION DE VARIABLES GLOBALES/////////////////////////////////// 
.................... unsigned int16 Steering_Sensor = 0, Zrack = 0, Caudal = 0, T1 = 0, T2 = 0, T3 = 0, T4 = 0; 
.................... unsigned int16 Suspen_Front_DRCH = 0, Suspen_Front_IZQ = 0, Auxiliar1 = 0,  Auxiliar2= 0; 
.................... volatile unsigned int8 Speed0 = 0, Speed1 = 0, Speed2 = 0, Speed3 = 0; 
....................  
....................  
.................... volatile char sendCanMsg = 0, readAdc = 0; 
....................  
....................  
.................... const INT16 TIME_INTERVAL_10MS = 64000; //con 64000 ->setup_timer1(TMR_INTERNAL | TMR_DIV_BY_64 ) 
.................... volatile unsigned INT16 timer1counter = 0; 
....................  
.................... ////////////////////// Definimos tamańo de los buffers que usaremos para mandar por de can1 ///////////////// 
.................... unsigned int8 can_buffer[CAN_BUFFER_LENGTH]; //el mensaje tendra 8  
.................... unsigned int8 can_buffer1[CAN_BUFFER_LENGTH]; 
....................  
....................  
.................... #INT_TIMER1 
.................... void timer1_isr(VOID) 
00234:  PUSH    42
00236:  PUSH    36
00238:  PUSH    54
0023A:  MOV     W0,[W15++]
0023C:  MOV     #2,W0
0023E:  REPEAT  #C
00240:  MOV     [W0++],[W15++]
.................... { 
....................         
....................        sendCanMsg = 1; //poner variable a 1 para que en el main entre en el if que manda por CAN 
00242:  MOV.B   #1,W0L
00244:  MOV.B   W0L,101B
....................        readAdc = 1; //poner variable a 1 para que en el main entre en el if que lee el los ADCs (PIC y externo) 
00246:  MOV.B   #1,W0L
00248:  MOV.B   W0L,101C
....................        output_high(LED_1); 
0024A:  MOV     #FE7F,W4
0024C:  MOV     W4,E40
0024E:  BSET.B  E44.7
....................        
....................    clear_interrupt(int_timer1); //limpiamos ISR interrupcion 
00250:  BCLR.B  800.3
....................    set_timer1 (TIME_INTERVAL_10MS);  // reinicio timer 
00252:  MOV     #FA00,W4
00254:  MOV     W4,100
....................  
....................    //habilitamos el resto de interrupciones manualmente 
....................    can_enable_interrupts (RB) ; 
00256:  MOV.B   #2,W0L
00258:  MOV.B   W0L,105A
0025A:  CALL    200
....................    can2_enable_interrupts(RB); 
0025E:  MOV.B   #2,W0L
00260:  MOV.B   W0L,105A
00262:  CALL    21A
....................    enable_interrupts (INT_CAN2);  
00266:  BSET.B  827.0
....................    enable_interrupts (INT_CAN1) ; 
00268:  BSET.B  824.3
....................    enable_interrupts (INT_TIMER1); 
0026A:  BSET.B  820.3
....................    enable_interrupts (GLOBAL) ; 
0026C:  BSET.B  8C3.7
.................... } 
....................  
0026E:  BCLR.B  800.3
00270:  MOV     #1A,W0
00272:  REPEAT  #C
00274:  MOV     [--W15],[W0--]
00276:  MOV     [--W15],W0
00278:  POP     54
0027A:  POP     36
0027C:  POP     42
0027E:  RETFIE  
....................    #INT_CAN2 
.................... void can2_isr (void){ 
*
00300:  PUSH    42
00302:  PUSH    36
00304:  PUSH    54
00306:  MOV     W0,[W15++]
00308:  MOV     #2,W0
0030A:  REPEAT  #C
0030C:  MOV     [W0++],[W15++]
0030E:  MOV.B   #8,W0L
00310:  MOV.B   W0L,1048
....................  
....................    struct rx_stat rxstat;//variable para la recepcion por can, la funcion pide este parametro 
....................    int8 can_msg_size_0=8; 
....................    volatile INT32 can_rcv_msg_id_2; 
....................    volatile UNSIGNED int8 can_rcv_msg_2[8]={0}; 
00312:  CLR     1052
00314:  CLR     1054
00316:  CLR     1056
00318:  CLR     1058
....................     
....................    can2_getd (can_rcv_msg_id_2, can_rcv_msg_2, can_msg_size_0, rxstat); 
0031A:  MOV     #1052,W4
0031C:  MOV     W4,105A
....................        
....................          Speed0=can_rcv_msg_2[2]; 
*
006A4:  MOV.B   1054,W0L
006A6:  MOV.B   W0L,1001
....................          Speed1=can_rcv_msg_2[3]; 
006A8:  MOV.B   1055,W0L
006AA:  MOV.B   W0L,1018
....................          Speed2=can_rcv_msg_2[4]; 
006AC:  MOV.B   1056,W0L
006AE:  MOV.B   W0L,1019
....................          Speed3=can_rcv_msg_2[5];   
006B0:  MOV.B   1057,W0L
006B2:  MOV.B   W0L,101A
....................          output_low(LED_1); 
006B4:  MOV     #FE7F,W4
006B6:  MOV     W4,E40
006B8:  BCLR.B  E44.7
....................        
....................    //habilitamos el resto de interrupciones manualmente 
....................    can_enable_interrupts (RB) ; 
006BA:  MOV.B   #2,W0L
006BC:  MOV.B   W0L,105A
006BE:  CALL    200
....................    can2_enable_interrupts(RB);   
006C2:  MOV.B   #2,W0L
006C4:  MOV.B   W0L,105A
006C6:  CALL    21A
....................    enable_interrupts (INT_CAN2);  
006CA:  BSET.B  827.0
....................    enable_interrupts (INT_CAN1); 
006CC:  BSET.B  824.3
....................    enable_interrupts (INT_TIMER1); 
006CE:  BSET.B  820.3
....................    enable_interrupts (GLOBAL) ; 
006D0:  BSET.B  8C3.7
006D2:  BCLR.B  807.0
006D4:  MOV     #1A,W0
006D6:  REPEAT  #C
006D8:  MOV     [--W15],[W0--]
006DA:  MOV     [--W15],W0
006DC:  POP     54
006DE:  POP     36
006E0:  POP     42
006E2:  RETFIE  
....................    } 
....................     
....................    int8 readChanel(int ch)  
.................... { 
....................     set_adc_channel(ch);   // activamos pin de lectura 
*
01358:  PUSH    1036
0135A:  POP     328
....................     delay_us(10);          // esperar a carga del condensador 
0135C:  REPEAT  #62
0135E:  NOP     
....................     return read_adc();     // Lectura valor ADC (0-255) 
01360:  BCLR.B  320.0
01362:  BSET.B  320.1
01364:  BTSS.B  320.0
01366:  BRA     1364
01368:  MOV     300,W0
0136A:  LSR     W0,#2,W0
0136C:  RETURN  
.................... } 
.................... unsigned int8 factorConversion(unsigned int16 MAX, unsigned int16 min, unsigned int16 data) 
0136E:  MOV     W5,[W15++]
01370:  CLR     103C
.................... { 
....................    unsigned int16 value = 0; 
....................     
....................    value = ((data - min)*255)/(MAX - min);         //Cuidado con "int16", trunca los decimales 
01372:  MOV     103A,W4
01374:  MOV     1038,W3
01376:  SUB     W4,W3,W5
01378:  MOV     #FF,W4
0137A:  MUL.UU  W5,W4,W0
0137C:  MOV     W0,W5
0137E:  MOV     1036,W4
01380:  MOV     1038,W3
01382:  SUB     W4,W3,W0
01384:  MOV     W5,W4
01386:  MOV     W0,W3
01388:  REPEAT  #11
0138A:  DIV.U   W4,W3
0138C:  MOV     W0,103C
....................   
....................    if(data<=min){ 
0138E:  MOV     103A,W0
01390:  MOV     1038,W4
01392:  CP      W4,W0
01394:  BRA     NC,1398
....................    value=0; 
01396:  CLR     103C
....................    } 
....................    if (value>=255){ 
01398:  MOV     103C,W4
0139A:  MOV     #FF,W3
0139C:  CP      W3,W4
0139E:  BRA     GTU,13A4
....................    value=255; 
013A0:  MOV     #FF,W4
013A2:  MOV     W4,103C
....................    } 
....................     
....................    return value; 
013A4:  MOV.B   103C,W0L
013A6:  MOV.B   W0L,0
013A8:  MOV     [--W15],W5
013AA:  RETURN  
.................... } 
....................  
....................  
....................  
....................  
....................  
.................... unsigned int8 normalizacionSuspen(unsigned int16 lmed, unsigned int16 data){ 
013AC:  CLR     103A
013AE:  CLR     103C
....................    int16  desplazamiento = 0, valornormal=0; 
....................    desplazamiento = data - lmed; 
013B0:  MOV     1038,W4
013B2:  MOV     1036,W3
013B4:  SUB     W4,W3,W0
013B6:  MOV     W0,103A
....................     
....................   // sacamos como un valor absoluto de lo que se desplaza 
....................    
....................    if (desplazamiento < -150) { //aqui es que ha cruzado del 45 al 0 
013B8:  MOV     103A,W4
013BA:  MOV     #FF6A,W3
013BC:  CP      W3,W4
013BE:  BRA     LE,13CC
....................     desplazamiento = desplazamiento + 255; 
013C0:  MOV     #FF,W4
013C2:  MOV     103A,W3
013C4:  ADD     W3,W4,W0
013C6:  MOV     W0,103A
....................      
....................       } 
013C8:  GOTO    13DA
....................    else if (desplazamiento > 150) {//aqui hemos cruzado del 0 al 45 (0 a 255) 
013CC:  MOV     103A,W4
013CE:  MOV     #96,W3
013D0:  CP      W3,W4
013D2:  BRA     GE,13DA
....................       desplazamiento = desplazamiento - 255; 
013D4:  MOV     103A,W4
013D6:  SUB     #FF,W4
013D8:  MOV     W4,103A
....................       } 
....................    valornormal = 128 + desplazamiento; 
013DA:  MOV     #80,W0
013DC:  ADD     103A,W0
013DE:  MOV     W0,103C
....................    if (valornormal < 0) valornormal = 0; 
013E0:  MOV     103C,W4
013E2:  CP      W4,#0
013E4:  BRA     GE,13E8
013E6:  CLR     103C
....................    if (valornormal > 255) valornormal = 255; 
013E8:  MOV     103C,W4
013EA:  MOV     #FF,W3
013EC:  CP      W3,W4
013EE:  BRA     GE,13F4
013F0:  MOV     #FF,W4
013F2:  MOV     W4,103C
....................    return valornormal; 
013F4:  MOV.B   103C,W0L
013F6:  MOV.B   W0L,0
013F8:  RETURN  
....................  } 
....................   
.................... /* unsigned int8 calcular_media(unsigned int16 datos[],int8 ventana){ 
....................    unsigned int16 suma= 0; 
....................    unsigned int8 media=0; 
....................    unsigned int8 a; 
....................       (int i = 0; a < ventana; i++) { 
....................         suma = suma + datos[i]; 
....................     } 
....................     media = suma/ventana; 
....................     return media; 
....................  }*/ 
....................   
....................  
....................    VOID setup () 
....................    { 
....................       //TAD=periodo del PIC y Tsampleo =31*TAD 
....................       output_low(LED_1); 
*
012CE:  MOV     #FE7F,W4
012D0:  MOV     W4,E40
012D2:  BCLR.B  E44.7
....................        
....................       //definicion de pines 
....................       set_tris_b (0b1100110000000000); 
012D4:  MOV     #CC00,W4
012D6:  MOV     W4,E10
....................       set_tris_c (0b00001000); 
012D8:  MOV     #8,W4
012DA:  MOV     W4,E20
....................       ///// ADC interno del PIC////// 
....................       setup_adc_ports(sAN9 | sAN10 | sAN11 | sAN14 | sAN15 | sAN24 | sAN25 | sAN26 | sAN27 | sAN28 | sAN29 | sAN30, VSS_VDD); 
012DC:  CLR     E0E
012DE:  MOV     #CE00,W4
012E0:  MOV     W4,E1E
012E2:  CLR     E2E
012E4:  CLR     E3E
012E6:  MOV     #7F,W4
012E8:  MOV     W4,E4E
012EA:  CLR     E5E
012EC:  CLR     E6E
012EE:  CLR     322
012F0:  CLR     362
....................       setup_adc(ADC_CLOCK_INTERNAL | ADC_TAD_MUL_0);// AD1CON3=0x1F01  
012F2:  MOV     #8000,W4
012F4:  MOV     W4,324
012F6:  MOV     #80E0,W4
012F8:  MOV     W4,320
....................        
....................       //Inicialización CAN 
....................       can_init () ; 
012FA:  CALL    A3E
....................       can2_init () ; 
012FE:  CALL    EDA
....................       //definicion buffers fisicos del micro para transmision y recepcion 
....................       can_enable_b_transfer (TRB0) ; 
01302:  CLR.B   1036
01304:  CALL    101C
....................       can2_enable_b_transfer (TRB1) ; 
01308:  MOV.B   #1,W0L
0130A:  MOV.B   W0L,1036
0130C:  CALL    10FC
....................       can2_enable_b_receiver(RB9); 
01310:  MOV.B   #9,W0L
01312:  MOV.B   W0L,1036
01314:  CALL    11DC
....................        
....................       can_set_mode(CAN_OP_CONFIG);   //primero entramos en modo config para cambiar el baud rate 
01318:  MOV.B   #4,W0L
0131A:  MOV.B   W0L,1040
0131C:  CALL    6E4
....................       can_set_mode(CAN_OP_NORMAL); 
01320:  CLR.B   1040
01322:  CALL    6E4
....................       //Timer 1 
....................       setup_timer1 (TMR_INTERNAL|TMR_DIV_BY_64) ; 
01326:  CLR     104
01328:  SETM    102
0132A:  MOV     #8020,W4
0132C:  MOV     W4,104
....................       SET_TIMER1 (TIME_INTERVAL_10MS); // timer 0 overflow at 10 ms with 20 MHz 
0132E:  MOV     #FA00,W4
01330:  MOV     W4,100
01332:  PUSH    8C2
01334:  BCLR.B  8C3.7
....................         
....................       //Activamos Inerrupciones 
....................       can_enable_interrupts (RB) ; 
01336:  MOV.B   #2,W0L
01338:  MOV.B   W0L,105A
0133A:  CALL    200
0133E:  POP     8C2
01340:  PUSH    8C2
01342:  BCLR.B  8C3.7
....................       can2_enable_interrupts(RB); 
01344:  MOV.B   #2,W0L
01346:  MOV.B   W0L,105A
01348:  CALL    21A
0134C:  POP     8C2
....................       enable_interrupts (INT_TIMER1) ; 
0134E:  BSET.B  820.3
....................       enable_interrupts (INT_CAN2) ; 
01350:  BSET.B  827.0
....................       enable_interrupts (INT_CAN1) ; 
01352:  BSET.B  824.3
....................       enable_interrupts (GLOBAL) ;     
01354:  BSET.B  8C3.7
01356:  RETURN  
....................  
....................    } 
....................  
....................    //////////////////////////////////////////////////////////////////////Hasta aqui el SETUP() !!!!!!!!!!!!!!!!!!!! 
....................    ///////////////////////////////////////////////////////////////////////////// 
....................    ///////////////////////////////////////////////////////////////////////////// 
....................    ///////////////////////////MAIN 
....................    ///////////////////////////////////////////////////////////////////////////// 
....................    ///////////////////////////////////////////////////////////////////////////// 
.................... VOID main ()  
*
016B2:  MOV     #7F80,W15
016B4:  MOV     #7FFF,W0
016B6:  MOV     W0,20
016B8:  NOP     
016BA:  MOV     #4444,W0
016BC:  MOV     W0,840
016BE:  BSET.B  8C1.7
016C0:  DISI    #6
016C2:  MOV     #742,W1
016C4:  MOV     #46,W2
016C6:  MOV     #57,W3
016C8:  MOV.B   W2L,[W1]
016CA:  MOV.B   W3L,[W1]
016CC:  BCLR.B  742.6
016CE:  MOV     #164D,W0
016D0:  MOV     W0,6D4
016D2:  MOV     #E,W0
016D4:  MOV     W0,684
016D6:  MOV     #F00,W0
016D8:  MOV     W0,698
016DA:  DISI    #6
016DC:  MOV     #742,W1
016DE:  MOV     #46,W2
016E0:  MOV     #57,W3
016E2:  MOV.B   W2L,[W1]
016E4:  MOV.B   W3L,[W1]
016E6:  BSET.B  742.6
016E8:  CLR     1002
016EA:  CLR     1004
016EC:  CLR     1006
016EE:  CLR     1008
016F0:  CLR     100A
016F2:  CLR     100C
016F4:  CLR     100E
016F6:  CLR     1010
016F8:  CLR     1012
016FA:  CLR     1014
016FC:  CLR     1016
016FE:  CLR.B   1001
01700:  CLR.B   1018
01702:  CLR.B   1019
01704:  CLR.B   101A
01706:  CLR.B   101B
01708:  CLR.B   101C
0170A:  CLR     101E
0170C:  CLR     E0E
0170E:  CLR     E1E
01710:  CLR     E2E
01712:  CLR     E3E
01714:  CLR     E4E
01716:  CLR     E6E
01718:  CLR.B   1030
0171A:  CLR.B   1031
0171C:  CLR.B   1032
0171E:  CLR.B   1033
01720:  CLR.B   1034
01722:  CLR.B   1035
.................... { 
....................    unsigned int8 i=0, Steering_SensorCalib = 0, ZrackCalib = 0, Suspen_Front_DRCHCalib = 0, Suspen_Front_IZQCalib = 0, CaudalCalib=0; 
....................  
....................    setup () ; 
01724:  CALL    12CE
....................    while(1){ 
....................  
....................     output_low(LED_1); 
01728:  MOV     #FE7F,W4
0172A:  MOV     W4,E40
0172C:  BCLR.B  E44.7
....................     output_high(LED_0); 
0172E:  MOV     #FE7F,W4
01730:  MOV     W4,E40
01732:  BSET.B  E45.0
....................      
....................        if (readAdc == 1) 
01734:  MOV.B   101C,W0L
01736:  SE      W0,W0
01738:  CP      W0,#1
0173A:  BRA     NZ,1800
....................        { 
....................           readAdc= 0;    
0173C:  CLR.B   101C
....................          // leemos los pines analogicos (ej. t1 AN15)  
....................           T1 = readChanel(15); //DRCH tiene cinta 
0173E:  MOV     #F,W4
01740:  MOV     W4,1036
01742:  CALL    1358
01746:  SE      W0,W0
01748:  MOV     W0,1008
....................           T2 = readChanel(10);  //DRCH mas pegao al monocasco 
0174A:  MOV     #A,W4
0174C:  MOV     W4,1036
0174E:  CALL    1358
01752:  SE      W0,W0
01754:  MOV     W0,100A
....................           T3 = readChanel(14); //IZQ tiene cinta 
01756:  MOV     #E,W4
01758:  MOV     W4,1036
0175A:  CALL    1358
0175E:  SE      W0,W0
01760:  MOV     W0,100C
....................           T4 = readChanel(11); //IZQ mas pegao al monocasco 
01762:  MOV     #B,W4
01764:  MOV     W4,1036
01766:  CALL    1358
0176A:  SE      W0,W0
0176C:  MOV     W0,100E
....................            
....................           Steering_Sensor=readChanel(24);   
0176E:  MOV     #18,W4
01770:  MOV     W4,1036
01772:  CALL    1358
01776:  SE      W0,W0
01778:  MOV     W0,1002
....................           Steering_SensorCalib=factorConversion(152,35,Steering_Sensor); 
0177A:  MOV     #98,W4
0177C:  MOV     W4,1036
0177E:  MOV     #23,W4
01780:  MOV     W4,1038
01782:  PUSH    1002
01784:  POP     103A
01786:  CALL    136E
0178A:  MOV.B   W0L,1031
....................            
....................           Zrack=readChanel(25)>>2; 
0178C:  MOV     #19,W4
0178E:  MOV     W4,1036
01790:  CALL    1358
01794:  MOV.B   W0L,1004
01796:  CLR.B   1005
01798:  LSR     1004
0179A:  LSR     1004
....................           ZrackCalib= factorConversion(255,0,Zrack);  
0179C:  MOV     #FF,W4
0179E:  MOV     W4,1036
017A0:  CLR     1038
017A2:  PUSH    1004
017A4:  POP     103A
017A6:  CALL    136E
017AA:  MOV.B   W0L,1032
....................            
....................           Suspen_Front_DRCH=readChanel(29); 
017AC:  MOV     #1D,W4
017AE:  MOV     W4,1036
017B0:  CALL    1358
017B4:  SE      W0,W0
017B6:  MOV     W0,1010
....................           Suspen_Front_DRCHCalib= normalizacionSuspen(13,Suspen_Front_IZQ); 
017B8:  MOV     #D,W4
017BA:  MOV     W4,1036
017BC:  PUSH    1012
017BE:  POP     1038
017C0:  CALL    13AC
017C4:  MOV.B   W0L,1033
....................            
....................           Suspen_Front_IZQ=readChanel(30); 
017C6:  MOV     #1E,W4
017C8:  MOV     W4,1036
017CA:  CALL    1358
017CE:  SE      W0,W0
017D0:  MOV     W0,1012
....................           Suspen_Front_IZQCalib = normalizacionSuspen(15,Suspen_Front_IZQ); 
017D2:  MOV     #F,W4
017D4:  MOV     W4,1036
017D6:  PUSH    1012
017D8:  POP     1038
017DA:  CALL    13AC
017DE:  MOV.B   W0L,1034
....................            
....................           Caudal=readChanel(30)>>2; 
017E0:  MOV     #1E,W4
017E2:  MOV     W4,1036
017E4:  CALL    1358
017E8:  MOV.B   W0L,1006
017EA:  CLR.B   1007
017EC:  LSR     1006
017EE:  LSR     1006
....................           CaudalCalib = factorConversion(255,0,Caudal); 
017F0:  MOV     #FF,W4
017F2:  MOV     W4,1036
017F4:  CLR     1038
017F6:  PUSH    1006
017F8:  POP     103A
017FA:  CALL    136E
017FE:  MOV.B   W0L,1035
....................            
....................        } 
....................        if(sendCanMsg == 1) 
01800:  MOV.B   101B,W0L
01802:  SE      W0,W0
01804:  CP      W0,#1
01806:  BRA     NZ,188A
....................        { 
....................         
....................           //restart enable to send can message 
....................           sendCanMsg = 0; 
01808:  CLR.B   101B
....................          
....................           can_buffer[0]=Speed0; 
0180A:  MOV.B   1001,W0L
0180C:  MOV.B   W0L,1020
....................           can_buffer[1]=Speed1; 
0180E:  MOV.B   1018,W0L
01810:  MOV.B   W0L,1021
....................           can_buffer[2]=Speed2; 
01812:  MOV.B   1019,W0L
01814:  MOV.B   W0L,1022
....................           can_buffer[3]=Speed3; 
01816:  MOV.B   101A,W0L
01818:  MOV.B   W0L,1023
....................           can_buffer[4]=Steering_Sensor; 
0181A:  MOV.B   1002,W0L
0181C:  MOV.B   W0L,1024
....................           can_buffer[5]=Steering_SensorCalib; // Izq FA - Drch 07 - centro 80 (HEX) 
0181E:  MOV.B   1031,W0L
01820:  MOV.B   W0L,1025
....................           can_buffer[6]=Zrack; 
01822:  MOV.B   1004,W0L
01824:  MOV.B   W0L,1026
....................           can_buffer[7]=ZrackCalib; 
01826:  MOV.B   1032,W0L
01828:  MOV.B   W0L,1027
....................              
....................           can_buffer1[0]=Suspen_Front_DRCH;  
0182A:  MOV.B   1010,W0L
0182C:  MOV.B   W0L,1028
....................           can_buffer1[1]=Suspen_Front_DRCHCalib;  
0182E:  MOV.B   1033,W0L
01830:  MOV.B   W0L,1029
....................           can_buffer1[2]= Suspen_Front_IZQ; 
01832:  MOV.B   1012,W0L
01834:  MOV.B   W0L,102A
....................           can_buffer1[3]=Suspen_Front_IZQCalib;  
01836:  MOV.B   1034,W0L
01838:  MOV.B   W0L,102B
....................           can_buffer1[4]=T1; 
0183A:  MOV.B   1008,W0L
0183C:  MOV.B   W0L,102C
....................           can_buffer1[5]=T2; 
0183E:  MOV.B   100A,W0L
01840:  MOV.B   W0L,102D
....................           can_buffer1[6]=T3; 
01842:  MOV.B   100C,W0L
01844:  MOV.B   W0L,102E
....................           can_buffer1[7]=T4; 
01846:  MOV.B   100E,W0L
01848:  MOV.B   W0L,102F
....................              
....................           //transmision de datos por CAN 
....................           can_putd(CAN_ID_SPEED_STEERING, can_buffer, CAN_BUFFER_LENGTH, CAN_PRIORITY, false, false); //ID 180 HEX / 384 DEC 
0184A:  MOV.B   #8,W0L
0184C:  MOV.B   W0L,103C
0184E:  MOV.B   #2,W0L
01850:  MOV.B   W0L,103D
01852:  CLR.B   103E
01854:  CLR.B   103F
01856:  MOV     #180,W4
01858:  MOV     W4,1036
0185A:  CLR     1038
0185C:  MOV     #1020,W4
0185E:  MOV     W4,103A
01860:  CALL    13FA
....................           delay_ms(1);//ańadir espera para asegurar que los datos han sido transmitidos 
01864:  REPEAT  #270E
01866:  NOP     
....................           can_putd(CAN_ID_SUSPEN_TEMP, can_buffer1, CAN_BUFFER_LENGTH, CAN_PRIORITY, false, false); //ID 181 HEX / 385 DEC 
01868:  MOV.B   #8,W0L
0186A:  MOV.B   W0L,103C
0186C:  MOV.B   #2,W0L
0186E:  MOV.B   W0L,103D
01870:  CLR.B   103E
01872:  CLR.B   103F
01874:  MOV     #181,W4
01876:  MOV     W4,1036
01878:  CLR     1038
0187A:  MOV     #1028,W4
0187C:  MOV     W4,103A
0187E:  CALL    13FA
....................           delay_ms(2);             
01882:  REPEAT  #E1E
01884:  NOP     
01886:  REPEAT  #3FFF
01888:  NOP     
....................        } 
0188A:  GOTO    1728
....................    } 
....................     
....................    
.................... } 
....................  
0188E:  PWRSAV  #0
....................  

Configuration Fuses:
   Word  3L: 0003   NOWRT NOPROTECT NOGSSK
          H: 0000  
   Word  4L: 0082   PR IESO
          H: 0000  
   Word  5L: 0022   HS OSCIO IOL1WAY CKSFSM
          H: 0000  
   Word  6L: 007F   WPOSTS16 WPRES128 PLLWAIT WINDIS NOWDT
          H: 0000  
   Word  7L: 0037   PUT128 NOBROWNOUT NOALTI2C1 NOALTI2C2
          H: 0000  
   Word  8L: 00D7   ICSP1 RESET_PRIMARY NOJTAG NODEBUG
          H: 0000  
   Word  9L: 0003   NOAWRT NOAPROTECT NOAPLK
          H: 0000  
